(lp1
S'Background'
p2
aVProblem
p3
ag3
aVMethod
p4
aVConclusion
p5
aVResult
p6
ag6
ag6
ag6
ag6
aVConclusion
p7
ag7
aS'Background'
p8
ag8
ag8
aVConclusion
p9
aS'Background'
p10
ag10
ag10
ag10
ag10
ag10
ag10
ag10
aS'Background'
p11
ag11
ag11
aS'Background'
p12
ag12
ag12
ag12
ag12
ag12
aS'Background'
p13
ag13
ag13
aS'Problem'
p14
ag14
ag14
ag14
aS'Background'
p15
ag15
ag15
ag15
ag15
aS'Background'
p16
ag16
ag16
ag16
aS'Method'
p17
aVConclusion
p18
ag18
ag18
ag18
ag18
aS'Method'
p19
ag19
ag19
ag19
ag19
ag19
ag19
aS'Method'
p20
ag20
ag20
ag20
ag20
ag20
ag20
ag20
aS'Method'
p21
aS'Method'
p22
ag22
ag22
ag22
ag22
ag22
ag22
ag22
aS'Method'
p23
ag23
ag23
aS'Method'
p24
ag24
ag24
ag24
ag24
ag24
ag24
aS'Method'
p25
ag25
aVResult
p26
ag26
aVMethod
p27
aVResult
p28
ag28
aVConclusion
p29
aS'Result'
p30
ag30
ag30
ag30
aS'Result'
p31
ag31
ag31
ag31
aS'Result'
p32
ag32
ag32
ag32
ag32
ag32
ag32
ag32
ag32
ag32
ag32
aS'Result'
p33
ag33
ag33
aS'Method'
p34
aVResult
p35
ag35
ag35
ag35
ag35
ag35
ag35
ag35
ag35
aVConclusion
p36
aS'Result'
p37
ag37
ag37
ag37
ag37
ag37
ag37
ag37
aS'Result'
p38
ag38
ag38
ag38
ag38
ag38
ag38
ag38
aS'Conclusion'
p39
ag39
ag39
ag39
aVBackground
p40
ag40
ag40
ag40
ag40
ag40
aVConclusion
p41
aS'Conclusion'
p42
ag42
ag42
ag42
aVBackground
p43
aVConclusion
p44
ag44
ag44
aVBackground
p45
ag45
aVConclusion
p46
ag46
aS'Background'
p47
ag47
ag47
ag47
ag47
ag47
aVConclusion
p48
ag48
ag48
aS'Conclusion'
p49
ag49
ag49
aS'Background'
p50
aVConclusion
p51
aS'Conclusion'
p52
ag52
ag52
ag52
ag52
aVBackground
p53
aVConclusion
p54
ag54
ag54
ag54
ag54
ag54
aS'Conclusion'
p55
ag55
ag55
ag55
ag55
ag55
ag55
ag55
ag55
ag55
ag55
ag55
ag55
ag55
ag55
aS'Conclusion'
p56
ag56
ag56
ag56
ag56
ag56
ag56
ag56
ag56
ag56
ag56
aS'Connection'
p57
ag57
ag57
aVConclusion
p58
aS'Conclusion'
p59
ag59
ag59
aVConnection
p60
ag60
ag60
ag60
ag60
aVConclusion
p61
aS'Conclusion'
p62
ag62
ag62
ag62
ag62
aS'Background'
p63
ag63
aVProblem
p64
aVResult
p65
ag65
ag65
aVConclusion
p66
ag66
aS'Background'
p67
ag67
ag67
aS'Background'
p68
ag68
ag68
aS'Background'
p69
ag69
ag69
ag69
aS'Problem'
p70
aVConclusion
p71
ag71
aS'Method'
p72
ag72
ag72
ag72
ag72
aS'Method'
p73
ag73
ag73
ag73
aS'Method'
p74
ag74
ag74
ag74
aS'Method'
p75
ag75
ag75
aS'Method'
p76
ag76
ag76
ag76
aS'Method'
p77
ag77
ag77
ag77
aS'Method'
p78
ag78
ag78
ag78
ag78
ag78
ag78
aS'Method'
p79
ag79
ag79
ag79
ag79
aS'Method'
p80
ag80
ag80
ag80
ag80
aS'Method'
p81
aVResult
p82
ag82
ag82
ag82
aVConclusion
p83
aS'Background'
p84
aVMethod
p85
aVResult
p86
aS'Method'
p87
aVResult
p88
ag88
aS'Background'
p89
aVMethod
p90
aVResult
p91
aVConclusion
p92
aS'Problem'
p93
aVMethod
p94
aVResult
p95
aVConclusion
p96
aS'Background'
p97
aVMethod
p98
aVResult
p99
ag99
aVConclusion
p100
aS'Problem'
p101
ag101
aVConclusion
p102
ag102
ag102
aS'Connection'
p103
aVConclusion
p104
ag104
ag104
ag104
aS'Conclusion'
p105
ag105
ag105
aVBackground
p106
ag106
ag106
aVConclusion
p107
aS'Conclusion'
p108
aVBackground
p109
aVConclusion
p110
ag110
ag110
ag110
ag110
ag110
ag110
aS'Conclusion'
p111
ag111
aS'Method'
p112
aVResult
p113
aVConclusion
p114
aVResult
p115
aVConclusion
p116
ag116
ag116
ag116
ag116
ag116
aS'Background'
p117
ag117
ag117
ag117
ag117
ag117
aS'Background'
p118
ag118
ag118
ag118
aS'Problem'
p119
aVMethod
p120
aVBackground
p121
aVMethod
p122
ag122
aS'Method'
p123
ag123
ag123
ag123
ag123
aS'Method'
p124
ag124
aS'Method'
p125
ag125
ag125
aVBackground
p126
aVMethod
p127
ag127
ag127
aS'Method'
p128
ag128
ag128
ag128
ag128
ag128
aS'Method'
p129
ag129
aS'Result'
p130
aVMethod
p131
aS'Result'
p132
ag132
aS'Result'
p133
ag133
ag133
ag133
ag133
ag133
aVConnection
p134
aS'Result'
p135
ag135
ag135
aS'Result'
p136
aVBackground
p137
aVResult
p138
aS'Conclusion'
p139
ag139
ag139
ag139
ag139
aS'Conclusion'
p140
ag140
ag140
ag140
aVConnection
p141
aVConclusion
p142
aS'Difference'
p143
ag143
aS'Connection'
p144
ag144
ag144
aVBackground
p145
aS'Background'
p146
aVConclusion
p147
aS'Conclusion'
p148
aS'Conclusion'
p149
ag149
ag149
aS'Background'
p150
ag150
ag150
aVProblem
p151
aVConclusion
p152
aVMethod
p153
aVConclusion
p154
ag154
ag154
aS'Background'
p155
ag155
ag155
ag155
ag155
ag155
aS'Background'
p156
aVProblem
p157
aVConclusion
p158
ag158
aS'Method'
p159
ag159
ag159
ag159
ag159
aS'Method'
p160
ag160
ag160
ag160
aS'Method'
p161
ag161
ag161
ag161
ag161
aS'Method'
p162
ag162
ag162
aS'Method'
p163
ag163
ag163
ag163
aS'Method'
p164
ag164
aS'Method'
p165
ag165
ag165
ag165
ag165
ag165
aS'Method'
p166
ag166
ag166
aS'Method'
p167
ag167
ag167
ag167
ag167
ag167
ag167
ag167
ag167
ag167
ag167
aS'Method'
p168
ag168
aS'Method'
p169
aS'Method'
p170
ag170
ag170
ag170
aS'Method'
p171
ag171
ag171
aS'Method'
p172
aS'Result'
p173
ag173
aS'Background'
p174
aVResult
p175
ag175
ag175
ag175
aS'Background'
p176
aVResult
p177
ag177
ag177
ag177
aS'Background'
p178
aVProblem
p179
aS'Result'
p180
ag180
aS'Problem'
p181
aVConclusion
p182
ag182
aS'Background'
p183
ag183
aVConclusion
p184
ag184
aVConnection
p185
aS'Conclusion'
p186
aVConnection
p187
ag187
aS'Background'
p188
ag188
aVConclusion
p189
aS'Conclusion'
p190
aVConnection
p191
aVConclusion
p192
aS'Conclusion'
p193
ag193
aVDifference
p194
aS'Conclusion'
p195
ag195
aS'Conclusion'
p196
aS'Conclusion'
p197
ag197
ag197
aS'Result'
p198
aVBackground
p199
ag199
aVMethod
p200
ag200
ag200
aVResult
p201
ag201
ag201
ag201
ag201
ag201
ag201
aVConclusion
p202
ag202
aS'Background'
p203
ag203
ag203
aS'Background'
p204
ag204
ag204
ag204
aVResult
p205
ag205
ag205
ag205
aVConclusion
p206
aVResult
p207
aS'Background'
p208
ag208
ag208
ag208
ag208
ag208
ag208
aS'Background'
p209
ag209
ag209
ag209
aVProblem
p210
ag210
aVBackground
p211
ag211
ag211
aVConclusion
p212
aVMethod
p213
aS'Background'
p214
ag214
aVMethod
p215
ag215
ag215
aS'Method'
p216
ag216
ag216
ag216
aS'Method'
p217
ag217
ag217
ag217
ag217
ag217
ag217
aS'Method'
p218
ag218
aVResult
p219
aVMethod
p220
aVResult
p221
aVBackground
p222
aVMethod
p223
aVResult
p224
ag224
ag224
aVMethod
p225
aVResult
p226
aVMethod
p227
aVResult
p228
aVMethod
p229
aS'Method'
p230
aVResult
p231
ag231
ag231
ag231
ag231
aS'Method'
p232
ag232
ag232
ag232
ag232
ag232
ag232
ag232
aVResult
p233
aVMethod
p234
ag234
aVResult
p235
ag235
ag235
ag235
aS'Method'
p236
ag236
aVResult
p237
aS'Method'
p238
ag238
ag238
ag238
ag238
aS'Method'
p239
ag239
ag239
ag239
aS'Method'
p240
ag240
ag240
ag240
ag240
aS'Method'
p241
ag241
ag241
ag241
ag241
aS'Method'
p242
ag242
ag242
ag242
ag242
aS'Method'
p243
ag243
ag243
ag243
aS'Method'
p244
ag244
ag244
ag244
ag244
ag244
aS'Method'
p245
ag245
ag245
aS'Method'
p246
ag246
ag246
ag246
ag246
ag246
ag246
ag246
ag246
ag246
ag246
ag246
ag246
ag246
ag246
ag246
aS'Method'
p247
ag247
ag247
ag247
ag247
ag247
ag247
ag247
ag247
ag247
ag247
ag247
ag247
ag247
ag247
ag247
aS'Method'
p248
ag248
ag248
ag248
ag248
ag248
ag248
ag248
ag248
ag248
ag248
ag248
ag248
ag248
ag248
ag248
ag248
ag248
ag248
ag248
ag248
ag248
ag248
ag248
ag248
aS'Method'
p249
ag249
ag249
ag249
ag249
ag249
ag249
ag249
ag249
ag249
ag249
ag249
ag249
ag249
aS'Method'
p250
ag250
ag250
ag250
ag250
ag250
aS'Method'
p251
ag251
ag251
ag251
ag251
ag251
ag251
ag251
ag251
ag251
ag251
ag251
ag251
ag251
aS'Method'
p252
ag252
ag252
ag252
ag252
ag252
ag252
ag252
ag252
ag252
aS'Method'
p253
ag253
ag253
ag253
aS'Method'
p254
ag254
ag254
aS'Method'
p255
ag255
ag255
aVResult
p256
ag256
aVConclusion
p257
ag257
aVResult
p258
aVConclusion
p259
aVMethod
p260
aVResult
p261
aVConclusion
p262
aS'Method'
p263
ag263
aVResult
p264
ag264
ag264
ag264
ag264
ag264
aVConclusion
p265
ag265
aVResult
p266
ag266
ag266
ag266
ag266
ag266
ag266
ag266
ag266
ag266
aVConclusion
p267
ag267
aVResult
p268
aS'Method'
p269
aVResult
p270
ag270
aS'Method'
p271
ag271
aVResult
p272
ag272
aVConclusion
p273
aVResult
p274
ag274
ag274
ag274
ag274
aVConclusion
p275
aVMethod
p276
aVResult
p277
aVMethod
p278
aVResult
p279
ag279
aS'Result'
p280
ag280
ag280
aS'Result'
p281
ag281
ag281
ag281
ag281
ag281
aVConclusion
p282
ag282
ag282
ag282
ag282
aS'Result'
p283
ag283
aVMethod
p284
aVResult
p285
ag285
ag285
ag285
ag285
ag285
ag285
ag285
ag285
aS'Result'
p286
ag286
aVMethod
p287
ag287
ag287
ag287
aVResult
p288
aS'Conclusion'
p289
ag289
ag289
ag289
aVMethod
p290
ag290
ag290
ag290
ag290
ag290
aS'Result'
p291
ag291
ag291
ag291
aS'Background'
p292
ag292
ag292
ag292
ag292
ag292
ag292
ag292
ag292
ag292
ag292
ag292
aVConclusion
p293
ag293
aVProblem
p294
ag294
aS'Conclusion'
p295
ag295
ag295
ag295
ag295
ag295
ag295
ag295
aVConnection
p296
ag296
ag296
ag296
ag296
ag296
ag296
aS'Conclusion'
p297
ag297
ag297
ag297
ag297
ag297
ag297
ag297
ag297
ag297
ag297
ag297
ag297
ag297
ag297
aS'Conclusion'
p298
ag298
ag298
aS'Conclusion'
p299
ag299
ag299
ag299
ag299
ag299
ag299
ag299
ag299
ag299
ag299
aVConnection
p300
aVConclusion
p301
ag301
ag301
aS'Conclusion'
p302
ag302
ag302
ag302
ag302
ag302
ag302
ag302
ag302
ag302
ag302
ag302
ag302
ag302
ag302
ag302
ag302
ag302
ag302
ag302
ag302
ag302
ag302
ag302
ag302
ag302
ag302
aS'Conclusion'
p303
ag303
ag303
ag303
ag303
aS'Conclusion'
p304
ag304
ag304
ag304
ag304
aVConnection
p305
aVConclusion
p306
aS'Conclusion'
p307
ag307
ag307
ag307
ag307
aS'Background'
p308
ag308
aVMethod
p309
aVResult
p310
aVMethod
p311
aVResult
p312
ag312
ag312
ag312
ag312
ag312
ag312
aVConclusion
p313
ag313
ag313
ag313
aS'Background'
p314
ag314
ag314
ag314
ag314
aS'Background'
p315
ag315
ag315
ag315
ag315
ag315
ag315
aS'Background'
p316
ag316
ag316
ag316
ag316
ag316
aS'Background'
p317
ag317
ag317
ag317
ag317
aS'Problem'
p318
ag318
aS'Method'
p319
ag319
ag319
ag319
ag319
ag319
ag319
aS'Method'
p320
ag320
ag320
aS'Method'
p321
ag321
ag321
ag321
ag321
ag321
ag321
aS'Method'
p322
ag322
ag322
ag322
aS'Method'
p323
ag323
ag323
aS'Method'
p324
ag324
ag324
ag324
ag324
ag324
ag324
aS'Method'
p325
ag325
ag325
ag325
ag325
ag325
ag325
ag325
aS'Method'
p326
ag326
ag326
ag326
ag326
ag326
ag326
ag326
ag326
ag326
ag326
ag326
aS'Method'
p327
ag327
aS'Method'
p328
ag328
aS'Result'
p329
ag329
ag329
ag329
ag329
ag329
ag329
aS'Result'
p330
ag330
ag330
ag330
aVConnection
p331
ag331
aS'Result'
p332
ag332
ag332
ag332
ag332
aS'Result'
p333
ag333
ag333
ag333
aS'Result'
p334
ag334
ag334
ag334
ag334
ag334
ag334
aS'Method'
p335
aVResult
p336
ag336
aVMethod
p337
aVResult
p338
ag338
ag338
aVConclusion
p339
aS'Method'
p340
aVBackground
p341
aVResult
p342
aVConclusion
p343
ag343
aVResult
p344
ag344
aVBackground
p345
aVResult
p346
ag346
aS'Method'
p347
aVResult
p348
ag348
ag348
aVConclusion
p349
aVResult
p350
aVConclusion
p351
ag351
aS'Method'
p352
aVResult
p353
ag353
aVConclusion
p354
ag354
ag354
ag354
ag354
aS'Background'
p355
ag355
ag355
ag355
aS'Background'
p356
ag356
ag356
ag356
ag356
ag356
ag356
aS'Conclusion'
p357
ag357
ag357
ag357
ag357
aVBackground
p358
ag358
aVConclusion
p359
ag359
ag359
ag359
ag359
ag359
ag359
aS'Conclusion'
p360
ag360
ag360
aVConnection
p361
aVConclusion
p362
aVConnection
p363
aVConclusion
p364
aS'Conclusion'
p365
ag365
ag365
ag365
ag365
ag365
ag365
ag365
aS'Conclusion'
p366
ag366
ag366
ag366
ag366
aS'Conclusion'
p367
ag367
ag367
ag367
aS'Conclusion'
p368
ag368
ag368
ag368
aVConnection
p369
ag369
aVConclusion
p370
ag370
aS'Conclusion'
p371
ag371
ag371
aS'Conclusion'
p372
ag372
ag372
ag372
aS'Background'
p373
aVMethod
p374
ag374
aVResult
p375
ag375
aVMethod
p376
ag376
aVResult
p377
ag377
ag377
ag377
ag377
aVConclusion
p378
aS'Background'
p379
ag379
ag379
ag379
ag379
ag379
ag379
ag379
aVProblem
p380
aS'Background'
p381
ag381
ag381
ag381
ag381
ag381
ag381
ag381
ag381
ag381
ag381
ag381
aS'Problem'
p382
aVMethod
p383
ag383
ag383
ag383
aS'Method'
p384
ag384
ag384
ag384
aS'Method'
p385
ag385
ag385
ag385
ag385
ag385
aS'Method'
p386
ag386
ag386
ag386
ag386
ag386
ag386
ag386
ag386
ag386
aS'Method'
p387
ag387
ag387
ag387
ag387
ag387
ag387
ag387
ag387
ag387
ag387
ag387
ag387
aS'Method'
p388
ag388
aS'Method'
p389
ag389
ag389
ag389
ag389
ag389
ag389
ag389
ag389
ag389
ag389
aS'Method'
p390
ag390
ag390
ag390
ag390
ag390
ag390
ag390
ag390
aS'Method'
p391
ag391
ag391
ag391
ag391
ag391
ag391
ag391
ag391
ag391
ag391
ag391
aS'Method'
p392
ag392
aS'Result'
p393
ag393
ag393
ag393
aS'Result'
p394
ag394
ag394
aVConnection
p395
aVResult
p396
ag396
ag396
ag396
ag396
ag396
ag396
ag396
aS'Result'
p397
ag397
aVConclusion
p398
aS'Result'
p399
aVMethod
p400
aVResult
p401
ag401
aVMethod
p402
aVResult
p403
ag403
ag403
aS'Result'
p404
ag404
ag404
ag404
ag404
ag404
aS'Result'
p405
ag405
ag405
ag405
ag405
ag405
ag405
aS'Result'
p406
ag406
ag406
aS'Result'
p407
ag407
ag407
ag407
ag407
aS'Result'
p408
ag408
ag408
ag408
ag408
ag408
ag408
ag408
aS'Result'
p409
ag409
ag409
ag409
aS'Result'
p410
ag410
ag410
ag410
ag410
ag410
ag410
ag410
ag410
ag410
aS'Result'
p411
ag411
ag411
aS'Background'
p412
aVConnection
p413
ag413
ag413
ag413
ag413
ag413
aVConclusion
p414
ag414
ag414
ag414
ag414
ag414
aS'Conclusion'
p415
aVConnection
p416
ag416
ag416
ag416
aVConclusion
p417
ag417
ag417
ag417
aS'Conclusion'
p418
aVBackground
p419
ag419
ag419
ag419
aVConclusion
p420
ag420
ag420
ag420
aS'Conclusion'
p421
ag421
ag421
aVConnection
p422
ag422
aVConclusion
p423
ag423
ag423
aS'Conclusion'
p424
ag424
ag424
aVConnection
p425
aVConclusion
p426
ag426
ag426
ag426
aS'Conclusion'
p427
ag427
ag427
ag427
aVBackground
p428
ag428
aVConclusion
p429
ag429
ag429
ag429
aS'Background'
p430
ag430
aVConclusion
p431
aS'Conclusion'
p432
ag432
ag432
ag432
aS'Background'
p433
ag433
aVProblem
p434
aVConclusion
p435
ag435
ag435
ag435
aS'Background'
p436
ag436
ag436
ag436
ag436
ag436
ag436
ag436
aS'Background'
p437
ag437
ag437
ag437
aS'Problem'
p438
aVConclusion
p439
ag439
aS'Method'
p440
ag440
ag440
ag440
ag440
ag440
ag440
ag440
ag440
ag440
aS'Method'
p441
ag441
ag441
ag441
ag441
ag441
ag441
ag441
ag441
aS'Method'
p442
ag442
ag442
ag442
aS'Method'
p443
ag443
ag443
ag443
ag443
aS'Method'
p444
aS'Method'
p445
aS'Method'
p446
aVResult
p447
ag447
ag447
aVConclusion
p448
aVResult
p449
ag449
ag449
aVConclusion
p450
aS'Background'
p451
aVMethod
p452
aVResult
p453
ag453
ag453
ag453
ag453
ag453
ag453
ag453
aVConclusion
p454
aS'Result'
p455
aVBackground
p456
aVResult
p457
ag457
ag457
aVBackground
p458
aVResult
p459
aVConclusion
p460
aS'Result'
p461
ag461
ag461
ag461
ag461
aVConclusion
p462
ag462
ag462
ag462
aS'Conclusion'
p463
aVResult
p464
ag464
ag464
ag464
ag464
ag464
aVConclusion
p465
aVResult
p466
aVBackground
p467
aVConclusion
p468
ag468
ag468
aS'Background'
p469
aVConclusion
p470
aVMethod
p471
aVResult
p472
ag472
ag472
aVConclusion
p473
ag473
aVResult
p474
ag474
aVConclusion
p475
ag475
ag475
ag475
ag475
ag475
ag475
aS'Conclusion'
p476
aVConnection
p477
ag477
ag477
aVConclusion
p478
ag478
ag478
ag478
ag478
ag478
ag478
ag478
ag478
aS'Problem'
p479
aVMethod
p480
aVResult
p481
ag481
ag481
ag481
ag481
aVConclusion
p482
aS'Background'
p483
ag483
ag483
ag483
ag483
aVProblem
p484
aS'Background'
p485
ag485
ag485
ag485
ag485
ag485
aS'Background'
p486
ag486
ag486
aS'Background'
p487
ag487
ag487
ag487
aVConclusion
p488
ag488
aS'Background'
p489
ag489
ag489
ag489
ag489
ag489
aVConclusion
p490
ag490
aS'Background'
p491
ag491
ag491
ag491
ag491
aVConclusion
p492
aS'Problem'
p493
ag493
ag493
ag493
ag493
ag493
aS'Problem'
p494
aVMethod
p495
ag495
ag495
aVProblem
p496
ag496
aVMethod
p497
aS'Method'
p498
ag498
ag498
ag498
ag498
ag498
ag498
ag498
ag498
ag498
ag498
ag498
ag498
aS'Method'
p499
ag499
aS'Method'
p500
ag500
ag500
aS'Method'
p501
ag501
ag501
ag501
ag501
ag501
ag501
aS'Method'
p502
ag502
ag502
ag502
ag502
ag502
ag502
aS'Result'
p503
ag503
ag503
ag503
ag503
ag503
ag503
aS'Result'
p504
ag504
ag504
ag504
ag504
aVConclusion
p505
ag505
aS'Background'
p506
aVMethod
p507
aS'Result'
p508
ag508
ag508
ag508
ag508
aS'Result'
p509
ag509
ag509
ag509
aS'Method'
p510
aVResult
p511
ag511
ag511
aVConclusion
p512
aS'Connection'
p513
aVMethod
p514
ag514
aS'Method'
p515
aVResult
p516
ag516
ag516
ag516
aVConclusion
p517
aVConnection
p518
aVConclusion
p519
aS'Background'
p520
ag520
aVProblem
p521
aVMethod
p522
aVConclusion
p523
ag523
ag523
aVConnection
p524
ag524
ag524
aVConclusion
p525
aS'Conclusion'
p526
ag526
aVConnection
p527
ag527
aVConclusion
p528
aVConnection
p529
aVConclusion
p530
ag530
ag530
ag530
ag530
aS'Background'
p531
aVConclusion
p532
aVConnection
p533
aVConclusion
p534
ag534
ag534
ag534
ag534
ag534
ag534
ag534
aS'Connection'
p535
ag535
ag535
ag535
ag535
ag535
aVConclusion
p536
aS'Conclusion'
p537
aVConnection
p538
aVConclusion
p539
ag539
ag539
ag539
ag539
ag539
ag539
ag539
aS'Conclusion'
p540
ag540
ag540
ag540
ag540
ag540
ag540
ag540
ag540
ag540
ag540
aS'Background'
p541
ag541
ag541
aVProblem
p542
ag542
aVResult
p543
ag543
ag543
ag543
ag543
ag543
aVConclusion
p544
aS'Background'
p545
ag545
ag545
ag545
ag545
ag545
ag545
ag545
aS'Problem'
p546
ag546
ag546
ag546
ag546
aS'Background'
p547
ag547
ag547
ag547
ag547
ag547
ag547
aS'Method'
p548
aS'Problem'
p549
aS'Method'
p550
ag550
ag550
ag550
ag550
ag550
aS'Method'
p551
aS'Method'
p552
aS'Method'
p553
ag553
ag553
ag553
ag553
ag553
ag553
ag553
ag553
aS'Method'
p554
ag554
ag554
ag554
ag554
ag554
ag554
ag554
aS'Method'
p555
ag555
ag555
ag555
ag555
ag555
ag555
aS'Method'
p556
ag556
ag556
aS'Method'
p557
ag557
ag557
ag557
ag557
ag557
aS'Method'
p558
ag558
ag558
aS'Method'
p559
ag559
ag559
ag559
ag559
ag559
aS'Method'
p560
ag560
ag560
ag560
aS'Method'
p561
ag561
ag561
aS'Result'
p562
aS'Result'
p563
ag563
ag563
ag563
ag563
ag563
ag563
ag563
ag563
ag563
aS'Method'
p564
aVResult
p565
ag565
aS'Result'
p566
ag566
aS'Method'
p567
aVResult
p568
ag568
ag568
aS'Result'
p569
aS'Result'
p570
ag570
ag570
aS'Result'
p571
ag571
ag571
ag571
aS'Result'
p572
aS'Method'
p573
aS'Method'
p574
aS'Result'
p575
ag575
ag575
ag575
aS'Result'
p576
ag576
ag576
ag576
aS'Result'
p577
ag577
aS'Background'
p578
ag578
ag578
ag578
ag578
ag578
ag578
ag578
ag578
ag578
aS'Conclusion'
p579
ag579
ag579
aVBackground
p580
aS'Conclusion'
p581
aVDifference
p582
aVConclusion
p583
ag583
aVConnection
p584
ag584
aVConclusion
p585
aS'Background'
p586
ag586
ag586
ag586
aVConclusion
p587
ag587
ag587
ag587
aS'Conclusion'
p588
ag588
ag588
ag588
ag588
ag588
aS'Conclusion'
p589
ag589
ag589
ag589
aS'Conclusion'
p590
ag590
ag590
ag590
aS'Conclusion'
p591
ag591
aS'Problem'
p592
ag592
aVMethod
p593
ag593
ag593
ag593
aVResult
p594
ag594
aVConclusion
p595
aVResult
p596
ag596
aVConclusion
p597
aS'Background'
p598
ag598
ag598
aS'Background'
p599
ag599
ag599
ag599
ag599
ag599
ag599
aS'Background'
p600
ag600
ag600
ag600
ag600
ag600
ag600
aS'Background'
p601
ag601
ag601
aS'Method'
p602
ag602
ag602
ag602
ag602
aS'Method'
p603
ag603
ag603
ag603
aS'Method'
p604
ag604
aS'Method'
p605
ag605
ag605
ag605
ag605
ag605
ag605
ag605
ag605
aS'Method'
p606
ag606
ag606
ag606
aS'Method'
p607
ag607
aS'Method'
p608
ag608
ag608
aS'Method'
p609
ag609
ag609
ag609
ag609
ag609
aS'Method'
p610
ag610
aS'Method'
p611
ag611
aS'Method'
p612
ag612
ag612
ag612
aS'Method'
p613
ag613
ag613
ag613
ag613
ag613
ag613
aS'Method'
p614
ag614
ag614
aS'Method'
p615
ag615
ag615
ag615
aS'Method'
p616
ag616
ag616
ag616
ag616
ag616
ag616
ag616
ag616
ag616
aS'Method'
p617
aS'Method'
p618
ag618
ag618
ag618
ag618
ag618
aS'Method'
p619
aS'Result'
p620
ag620
ag620
ag620
ag620
ag620
aS'Result'
p621
ag621
ag621
ag621
aS'Result'
p622
ag622
ag622
ag622
ag622
ag622
ag622
ag622
ag622
aS'Result'
p623
ag623
ag623
ag623
ag623
ag623
aS'Result'
p624
ag624
ag624
ag624
ag624
ag624
ag624
aS'Method'
p625
aVResult
p626
ag626
aVConclusion
p627
aS'Result'
p628
ag628
ag628
ag628
ag628
aVMethod
p629
aVResult
p630
ag630
ag630
ag630
ag630
ag630
aS'Result'
p631
ag631
ag631
ag631
ag631
ag631
ag631
aS'Result'
p632
ag632
ag632
ag632
ag632
ag632
ag632
ag632
ag632
ag632
aVConnection
p633
aVConclusion
p634
ag634
aS'Result'
p635
aVMethod
p636
ag636
aVResult
p637
ag637
ag637
ag637
ag637
aS'Result'
p638
ag638
ag638
ag638
ag638
ag638
ag638
ag638
aS'Conclusion'
p639
ag639
ag639
ag639
ag639
ag639
aS'Background'
p640
aVConnection
p641
aVConclusion
p642
ag642
ag642
ag642
aS'Conclusion'
p643
aVConnection
p644
aVConclusion
p645
ag645
ag645
ag645
ag645
ag645
ag645
ag645
aS'Conclusion'
p646
ag646
ag646
ag646
ag646
ag646
ag646
aVConnection
p647
aVConclusion
p648
ag648
aS'Connection'
p649
ag649
aVConclusion
p650
ag650
ag650
ag650
ag650
ag650
ag650
ag650
ag650
aS'Conclusion'
p651
ag651
ag651
aVConnection
p652
ag652
aVConclusion
p653
aVConnection
p654
ag654
aS'Connection'
p655
aVConclusion
p656
aVConnection
p657
aVConclusion
p658
ag658
ag658
aVDifference
p659
aVConclusion
p660
aS'Conclusion'
p661
ag661
ag661
aS'Background'
p662
ag662
aVProblem
p663
aVResult
p664
aVProblem
p665
aVResult
p666
ag666
ag666
aVMethod
p667
aVResult
p668
aVConclusion
p669
aS'Background'
p670
ag670
ag670
aVProblem
p671
aVBackground
p672
ag672
aS'Background'
p673
ag673
ag673
ag673
aVProblem
p674
aS'Background'
p675
ag675
ag675
ag675
ag675
aVProblem
p676
aS'Problem'
p677
ag677
aVBackground
p678
ag678
ag678
ag678
ag678
ag678
aVProblem
p679
aS'Problem'
p680
ag680
aVMethod
p681
aS'Method'
p682
ag682
ag682
ag682
aS'Method'
p683
ag683
ag683
aS'Method'
p684
ag684
ag684
ag684
ag684
ag684
ag684
ag684
aS'Method'
p685
ag685
aVResult
p686
aS'Method'
p687
ag687
ag687
ag687
ag687
ag687
aVResult
p688
aS'Method'
p689
aVResult
p690
aVMethod
p691
ag691
ag691
ag691
aS'Method'
p692
ag692
ag692
ag692
aS'Method'
p693
aVResult
p694
ag694
ag694
ag694
ag694
aVConnection
p695
aVResult
p696
ag696
ag696
ag696
ag696
aS'Method'
p697
ag697
aVResult
p698
ag698
ag698
aS'Method'
p699
ag699
aVResult
p700
ag700
ag700
ag700
ag700
aVConnection
p701
aVResult
p702
aVConclusion
p703
aS'Method'
p704
aVConnection
p705
ag705
aVConclusion
p706
aVResult
p707
ag707
aVMethod
p708
ag708
aS'Result'
p709
ag709
ag709
aVBackground
p710
aVResult
p711
aVConclusion
p712
ag712
ag712
aS'Background'
p713
aVMethod
p714
aVResult
p715
ag715
ag715
ag715
ag715
aS'Background'
p716
ag716
ag716
ag716
aVConclusion
p717
aVBackground
p718
ag718
ag718
aS'Conclusion'
p719
ag719
ag719
ag719
ag719
ag719
ag719
ag719
aS'Connection'
p720
aVConclusion
p721
ag721
aS'Conclusion'
p722
aVBackground
p723
ag723
ag723
aVConclusion
p724
ag724
ag724
ag724
ag724
ag724
aS'Conclusion'
p725
ag725
ag725
aVConnection
p726
ag726
aVConclusion
p727
ag727
aS'Conclusion'
p728
ag728
ag728
ag728
ag728
ag728
ag728
ag728
ag728
ag728
aS'Conclusion'
p729
ag729
ag729
ag729
ag729
ag729
aS'Background'
p730
ag730
aVConclusion
p731
ag731
aS'Conclusion'
p732
ag732
aVBackground
p733
ag733
ag733
aVConclusion
p734
aS'Conclusion'
p735
ag735
ag735
aS'Problem'
p736
aS'Method'
p737
aVBackground
p738
aVMethod
p739
aS'Result'
p740
ag740
ag740
ag740
aS'Conclusion'
p741
ag741
aS'Background'
p742
ag742
aS'Conclusion'
p743
aVMethod
p744
aVConclusion
p745
aS'Conclusion'
p746
aS'Conclusion'
p747
aS'Conclusion'
p748
aS'Conclusion'
p749
aS'Conclusion'
p750
ag750
aS'Background'
p751
aVMethod
p752
ag752
ag752
ag752
ag752
ag752
ag752
ag752
ag752
ag752
aS'Method'
p753
ag753
ag753
ag753
ag753
aS'Method'
p754
ag754
aS'Result'
p755
aVMethod
p756
ag756
aVResult
p757
ag757
aVConclusion
p758
aVResult
p759
ag759
ag759
aS'Result'
p760
ag760
aS'Result'
p761
ag761
ag761
ag761
ag761
aS'Conclusion'
p762
ag762
ag762
aS'Difference'
p763
ag763
aVConclusion
p764
aVDifference
p765
ag765
aVConclusion
p766
ag766
ag766
aS'Background'
p767
ag767
aVConclusion
p768
ag768
ag768
aS'Conclusion'
p769
aVConnection
p770
aVConclusion
p771
ag771
ag771
ag771
aS'Conclusion'
p772
aVConnection
p773
ag773
ag773
aVConclusion
p774
aS'Conclusion'
p775
ag775
aVConnection
p776
aVConclusion
p777
ag777
ag777
ag777
aS'Conclusion'
p778
ag778
ag778
ag778
aS'Background'
p779
aVProblem
p780
aVResult
p781
ag781
ag781
ag781
aVConclusion
p782
aS'Background'
p783
ag783
ag783
aS'Background'
p784
ag784
ag784
aS'Problem'
p785
ag785
ag785
ag785
ag785
aS'Background'
p786
ag786
ag786
aVProblem
p787
aS'Problem'
p788
aVBackground
p789
aVProblem
p790
aVConclusion
p791
aS'Method'
p792
ag792
aS'Method'
p793
ag793
ag793
ag793
ag793
aS'Method'
p794
ag794
ag794
aS'Method'
p795
ag795
ag795
ag795
ag795
ag795
ag795
aS'Method'
p796
ag796
ag796
ag796
aS'Method'
p797
ag797
aVBackground
p798
aVMethod
p799
aS'Method'
p800
ag800
ag800
ag800
aS'Method'
p801
ag801
ag801
ag801
ag801
ag801
ag801
ag801
ag801
aS'Method'
p802
ag802
ag802
aS'Method'
p803
ag803
ag803
ag803
aVResult
p804
ag804
ag804
ag804
ag804
ag804
ag804
aS'Background'
p805
ag805
aVProblem
p806
aVConclusion
p807
ag807
aVResult
p808
ag808
ag808
ag808
aS'Method'
p809
ag809
ag809
aVResult
p810
ag810
ag810
ag810
aVConclusion
p811
aVMethod
p812
ag812
aVResult
p813
ag813
aVConclusion
p814
aVProblem
p815
ag815
aVResult
p816
ag816
ag816
ag816
ag816
ag816
aS'Method'
p817
ag817
aVResult
p818
ag818
ag818
ag818
ag818
ag818
ag818
ag818
ag818
aS'Method'
p819
ag819
aVResult
p820
ag820
ag820
ag820
ag820
aVConclusion
p821
aS'Problem'
p822
aVMethod
p823
aVResult
p824
ag824
ag824
ag824
aVMethod
p825
aVResult
p826
aS'Method'
p827
ag827
aVResult
p828
ag828
ag828
ag828
aVConclusion
p829
ag829
aVBackground
p830
aVResult
p831
ag831
ag831
ag831
ag831
aVConclusion
p832
aS'Connection'
p833
ag833
ag833
ag833
ag833
ag833
ag833
aVConclusion
p834
ag834
aS'Background'
p835
ag835
ag835
ag835
ag835
aVDifference
p836
ag836
ag836
ag836
aVConclusion
p837
ag837
ag837
ag837
ag837
ag837
ag837
aS'Connection'
p838
ag838
ag838
ag838
ag838
aVConclusion
p839
ag839
aS'Conclusion'
p840
ag840
aVBackground
p841
aVConclusion
p842
ag842
ag842
ag842
aVConnection
p843
ag843
aVConclusion
p844
aS'Background'
p845
aVProblem
p846
aVBackground
p847
ag847
aVMethod
p848
ag848
aVResult
p849
aVConclusion
p850
ag850
ag850
ag850
ag850
ag850
aS'Background'
p851
ag851
ag851
ag851
ag851
ag851
aS'Background'
p852
ag852
ag852
ag852
ag852
ag852
ag852
aS'Background'
p853
ag853
ag853
ag853
ag853
aS'Background'
p854
ag854
ag854
ag854
ag854
ag854
ag854
aS'Problem'
p855
aVMethod
p856
ag856
ag856
ag856
ag856
aS'Method'
p857
ag857
aS'Method'
p858
ag858
ag858
ag858
ag858
ag858
ag858
ag858
ag858
ag858
ag858
ag858
ag858
ag858
ag858
ag858
ag858
ag858
ag858
aS'Method'
p859
ag859
ag859
ag859
ag859
ag859
ag859
ag859
ag859
ag859
ag859
aS'Method'
p860
ag860
ag860
ag860
ag860
aS'Method'
p861
ag861
ag861
ag861
ag861
ag861
ag861
ag861
aS'Method'
p862
ag862
ag862
ag862
ag862
ag862
ag862
ag862
ag862
ag862
ag862
aS'Method'
p863
ag863
ag863
ag863
ag863
ag863
ag863
ag863
ag863
ag863
ag863
aS'Method'
p864
ag864
ag864
ag864
ag864
ag864
ag864
ag864
aS'Background'
p865
aVResult
p866
ag866
aVMethod
p867
aVResult
p868
ag868
ag868
aS'Result'
p869
aVMethod
p870
aVResult
p871
ag871
ag871
ag871
ag871
aS'Method'
p872
aVResult
p873
ag873
ag873
aS'Result'
p874
ag874
ag874
ag874
ag874
ag874
ag874
ag874
ag874
aS'Result'
p875
ag875
ag875
ag875
ag875
ag875
ag875
aS'Result'
p876
ag876
ag876
ag876
ag876
ag876
ag876
ag876
aS'Result'
p877
ag877
ag877
aS'Conclusion'
p878
aVConnection
p879
ag879
ag879
ag879
ag879
aS'Conclusion'
p880
aVConnection
p881
ag881
ag881
aVConclusion
p882
aVConnection
p883
ag883
ag883
aVDifference
p884
ag884
aVConclusion
p885
aVBackground
p886
aVConclusion
p887
ag887
aS'Conclusion'
p888
ag888
ag888
ag888
ag888
ag888
ag888
ag888
ag888
ag888
ag888
ag888
aS'Conclusion'
p889
ag889
ag889
ag889
ag889
ag889
ag889
aVConnection
p890
ag890
ag890
aVConclusion
p891
ag891
ag891
aVConnection
p892
ag892
ag892
ag892
ag892
ag892
aVConclusion
p893
aS'Conclusion'
p894
ag894
aVConnection
p895
ag895
ag895
aVConclusion
p896
ag896
ag896
aS'Conclusion'
p897
ag897
ag897
ag897
aVDifference
p898
ag898
aVConclusion
p899
ag899
ag899
ag899
aVConnection
p900
ag900
aVConclusion
p901
ag901
ag901
aS'Background'
p902
ag902
aVProblem
p903
aVMethod
p904
aVResult
p905
ag905
ag905
aVConclusion
p906
ag906
aVResult
p907
ag907
aVConclusion
p908
ag908
ag908
aS'Background'
p909
ag909
ag909
ag909
ag909
aS'Background'
p910
ag910
ag910
ag910
ag910
ag910
ag910
ag910
ag910
ag910
ag910
ag910
ag910
aS'Background'
p911
ag911
ag911
ag911
ag911
aS'Background'
p912
ag912
ag912
aVProblem
p913
ag913
ag913
aVConclusion
p914
ag914
ag914
aS'Method'
p915
ag915
ag915
ag915
ag915
ag915
aS'Method'
p916
ag916
aS'Method'
p917
ag917
ag917
ag917
ag917
aS'Method'
p918
ag918
ag918
ag918
ag918
aS'Method'
p919
ag919
ag919
ag919
ag919
aS'Method'
p920
ag920
ag920
aS'Method'
p921
ag921
ag921
ag921
ag921
ag921
ag921
aS'Method'
p922
ag922
ag922
ag922
ag922
ag922
aS'Method'
p923
aS'Background'
p924
aVMethod
p925
ag925
aVResult
p926
ag926
aS'Problem'
p927
aVResult
p928
aS'Result'
p929
aVMethod
p930
aVBackground
p931
ag931
aVResult
p932
aVConclusion
p933
aS'Method'
p934
ag934
ag934
ag934
aVResult
p935
aVConclusion
p936
aS'Result'
p937
aS'Problem'
p938
aVResult
p939
ag939
aVProblem
p940
aVResult
p941
ag941
ag941
aVConclusion
p942
aVResult
p943
ag943
aS'Background'
p944
ag944
aVProblem
p945
aVResult
p946
ag946
aVProblem
p947
aVResult
p948
aVBackground
p949
aVResult
p950
aVConclusion
p951
aS'Conclusion'
p952
aS'Background'
p953
aVProblem
p954
aVBackground
p955
aVResult
p956
aVBackground
p957
aVProblem
p958
aVMethod
p959
aVResult
p960
ag960
ag960
ag960
ag960
aVConclusion
p961
aVProblem
p962
aVResult
p963
ag963
aVConclusion
p964
aS'Problem'
p965
aVBackground
p966
ag966
ag966
aVConnection
p967
aVConclusion
p968
aS'Problem'
p969
ag969
aVConclusion
p970
aVBackground
p971
aVConclusion
p972
aVBackground
p973
ag973
ag973
ag973
ag973
aVConclusion
p974
ag974
aS'Problem'
p975
aVConclusion
p976
aVConnection
p977
aVConclusion
p978
ag978
aVProblem
p979
aVConnection
p980
ag980
aVConclusion
p981
ag981
aS'Background'
p982
ag982
ag982
ag982
aVConclusion
p983
ag983
aS'Conclusion'
p984
aVBackground
p985
ag985
ag985
aVConclusion
p986
aVConnection
p987
aVConclusion
p988
ag988
aS'Background'
p989
ag989
aVProblem
p990
ag990
ag990
aVMethod
p991
ag991
aVResult
p992
ag992
ag992
ag992
ag992
ag992
aVConclusion
p993
aS'Background'
p994
ag994
ag994
aVProblem
p995
aS'Background'
p996
ag996
ag996
ag996
aVProblem
p997
ag997
ag997
ag997
ag997
aS'Result'
p998
aVConclusion
p999
ag999
aS'Method'
p1000
ag1000
ag1000
ag1000
ag1000
ag1000
aS'Method'
p1001
ag1001
ag1001
aS'Method'
p1002
ag1002
ag1002
ag1002
ag1002
ag1002
ag1002
ag1002
ag1002
ag1002
aS'Method'
p1003
aS'Method'
p1004
ag1004
ag1004
ag1004
ag1004
ag1004
ag1004
ag1004
ag1004
aS'Method'
p1005
ag1005
ag1005
ag1005
aS'Method'
p1006
ag1006
ag1006
ag1006
ag1006
ag1006
ag1006
ag1006
aS'Method'
p1007
aS'Method'
p1008
ag1008
ag1008
aS'Method'
p1009
ag1009
ag1009
ag1009
ag1009
aVConnection
p1010
aVMethod
p1011
ag1011
ag1011
ag1011
aS'Method'
p1012
ag1012
ag1012
aS'Method'
p1013
ag1013
aVResult
p1014
ag1014
ag1014
ag1014
ag1014
ag1014
aS'Result'
p1015
ag1015
ag1015
aS'Result'
p1016
ag1016
ag1016
ag1016
ag1016
ag1016
ag1016
ag1016
ag1016
aS'Method'
p1017
aVResult
p1018
ag1018
ag1018
aS'Method'
p1019
aVBackground
p1020
ag1020
ag1020
aVResult
p1021
ag1021
ag1021
aS'Background'
p1022
aVMethod
p1023
aVResult
p1024
aVConnection
p1025
ag1025
aS'Background'
p1026
aVMethod
p1027
aVResult
p1028
ag1028
ag1028
ag1028
ag1028
aS'Method'
p1029
aVResult
p1030
ag1030
aS'Conclusion'
p1031
aVBackground
p1032
ag1032
aVProblem
p1033
aS'Connection'
p1034
aVProblem
p1035
aVConclusion
p1036
ag1036
aS'Connection'
p1037
ag1037
ag1037
aVConclusion
p1038
aS'Conclusion'
p1039
ag1039
aVBackground
p1040
aVConclusion
p1041
aVBackground
p1042
aVConclusion
p1043
ag1043
ag1043
ag1043
ag1043
aS'Conclusion'
p1044
aVBackground
p1045
ag1045
aS'Background'
p1046
aVConclusion
p1047
ag1047
aS'Conclusion'
p1048
ag1048
ag1048
aS'Background'
p1049
ag1049
ag1049
ag1049
aVProblem
p1050
aVResult
p1051
ag1051
ag1051
ag1051
ag1051
aVConclusion
p1052
aS'Background'
p1053
ag1053
ag1053
ag1053
aS'Background'
p1054
ag1054
ag1054
aS'Background'
p1055
ag1055
ag1055
ag1055
ag1055
ag1055
ag1055
ag1055
aS'Background'
p1056
ag1056
ag1056
ag1056
aS'Background'
p1057
ag1057
ag1057
ag1057
ag1057
aS'Background'
p1058
ag1058
aVConclusion
p1059
aVBackground
p1060
ag1060
ag1060
ag1060
ag1060
ag1060
aS'Problem'
p1061
aVConclusion
p1062
aS'Method'
p1063
ag1063
ag1063
ag1063
aS'Method'
p1064
ag1064
ag1064
ag1064
ag1064
ag1064
aS'Method'
p1065
ag1065
ag1065
ag1065
aS'Method'
p1066
ag1066
ag1066
ag1066
ag1066
ag1066
aS'Method'
p1067
ag1067
ag1067
ag1067
aS'Method'
p1068
ag1068
ag1068
ag1068
ag1068
ag1068
aS'Method'
p1069
ag1069
ag1069
ag1069
aS'Method'
p1070
ag1070
ag1070
ag1070
aS'Method'
p1071
ag1071
ag1071
ag1071
ag1071
ag1071
ag1071
ag1071
aS'Method'
p1072
ag1072
aS'Method'
p1073
ag1073
aS'Method'
p1074
ag1074
ag1074
ag1074
ag1074
ag1074
ag1074
aS'Background'
p1075
aVMethod
p1076
ag1076
aS'Result'
p1077
ag1077
ag1077
ag1077
ag1077
ag1077
aVConclusion
p1078
aS'Method'
p1079
aVResult
p1080
ag1080
ag1080
ag1080
ag1080
ag1080
ag1080
aS'Method'
p1081
aVResult
p1082
ag1082
ag1082
ag1082
ag1082
aS'Method'
p1083
aVResult
p1084
aS'Method'
p1085
aVResult
p1086
ag1086
aS'Method'
p1087
ag1087
aVResult
p1088
ag1088
ag1088
aVConclusion
p1089
aS'Method'
p1090
aVResult
p1091
aS'Method'
p1092
aVResult
p1093
ag1093
aVConclusion
p1094
aS'Background'
p1095
ag1095
ag1095
ag1095
ag1095
ag1095
ag1095
aVConclusion
p1096
aS'Background'
p1097
ag1097
ag1097
ag1097
ag1097
ag1097
ag1097
aS'Background'
p1098
aVProblem
p1099
aS'Background'
p1100
ag1100
ag1100
aS'Background'
p1101
aVConclusion
p1102
ag1102
ag1102
aVConnection
p1103
aS'Background'
p1104
ag1104
aVConclusion
p1105
ag1105
aS'Conclusion'
p1106
aVBackground
p1107
ag1107
ag1107
aVConclusion
p1108
ag1108
ag1108
aS'Background'
p1109
aVConclusion
p1110
aVConnection
p1111
ag1111
ag1111
ag1111
aVConclusion
p1112
ag1112
ag1112
ag1112
ag1112
aS'Background'
p1113
ag1113
ag1113
ag1113
ag1113
aVConclusion
p1114
ag1114
aS'Background'
p1115
ag1115
aVConclusion
p1116
ag1116
aS'Connection'
p1117
aVConclusion
p1118
ag1118
ag1118
aS'Conclusion'
p1119
ag1119
ag1119
aS'Method'
p1120
aVConclusion
p1121
ag1121
ag1121
ag1121
ag1121
aVBackground
p1122
ag1122
aVConclusion
p1123
aS'Conclusion'
p1124
ag1124
ag1124
ag1124
ag1124
aS'Background'
p1125
aVProblem
p1126
aVMethod
p1127
ag1127
aVResult
p1128
ag1128
ag1128
aVConclusion
p1129
aS'Background'
p1130
ag1130
ag1130
ag1130
ag1130
ag1130
ag1130
aS'Background'
p1131
ag1131
ag1131
ag1131
ag1131
ag1131
ag1131
ag1131
aS'Background'
p1132
ag1132
aVConclusion
p1133
aVBackground
p1134
aVMethod
p1135
aVConclusion
p1136
aS'Method'
p1137
aS'Method'
p1138
ag1138
ag1138
ag1138
aS'Method'
p1139
aS'Method'
p1140
ag1140
aS'Method'
p1141
ag1141
ag1141
ag1141
ag1141
ag1141
ag1141
ag1141
ag1141
aS'Method'
p1142
aS'Method'
p1143
ag1143
aVResult
p1144
ag1144
ag1144
aS'Background'
p1145
aVMethod
p1146
aVBackground
p1147
aVMethod
p1148
ag1148
ag1148
ag1148
aVResult
p1149
ag1149
ag1149
ag1149
aS'Method'
p1150
aVConnection
p1151
aVResult
p1152
ag1152
ag1152
aVConclusion
p1153
aS'Background'
p1154
aVProblem
p1155
aVMethod
p1156
ag1156
aVConclusion
p1157
aVConnection
p1158
aVConclusion
p1159
aS'Background'
p1160
ag1160
ag1160
ag1160
ag1160
aVConclusion
p1161
aVDifference
p1162
aVConclusion
p1163
aS'Conclusion'
p1164
aVBackground
p1165
ag1165
ag1165
aVConclusion
p1166
ag1166
ag1166
ag1166
ag1166
ag1166
aS'Conclusion'
p1167
ag1167
ag1167
aS'Background'
p1168
aVProblem
p1169
aVResult
p1170
ag1170
ag1170
aVConclusion
p1171
ag1171
aS'Background'
p1172
ag1172
ag1172
ag1172
ag1172
aVProblem
p1173
ag1173
ag1173
aS'Background'
p1174
ag1174
ag1174
ag1174
ag1174
ag1174
ag1174
aS'Background'
p1175
ag1175
ag1175
aVConclusion
p1176
aS'Method'
p1177
ag1177
ag1177
ag1177
ag1177
ag1177
ag1177
aS'Method'
p1178
ag1178
ag1178
ag1178
ag1178
ag1178
ag1178
ag1178
ag1178
aS'Method'
p1179
ag1179
ag1179
ag1179
ag1179
ag1179
ag1179
ag1179
ag1179
ag1179
aS'Method'
p1180
ag1180
ag1180
ag1180
aS'Method'
p1181
ag1181
ag1181
aS'Method'
p1182
ag1182
ag1182
ag1182
ag1182
ag1182
ag1182
ag1182
aS'Method'
p1183
ag1183
ag1183
ag1183
ag1183
ag1183
ag1183
ag1183
aS'Method'
p1184
ag1184
ag1184
ag1184
aS'Method'
p1185
ag1185
ag1185
ag1185
ag1185
ag1185
ag1185
aS'Background'
p1186
aVMethod
p1187
ag1187
aVResult
p1188
ag1188
aVProblem
p1189
ag1189
ag1189
aVMethod
p1190
aVResult
p1191
ag1191
ag1191
ag1191
aS'Problem'
p1192
aVMethod
p1193
aVResult
p1194
aVMethod
p1195
aVResult
p1196
ag1196
ag1196
ag1196
ag1196
aVMethod
p1197
aS'Problem'
p1198
aVMethod
p1199
ag1199
aVResult
p1200
ag1200
ag1200
aVConclusion
p1201
aS'Method'
p1202
ag1202
ag1202
ag1202
ag1202
aVResult
p1203
ag1203
aS'Method'
p1204
aVBackground
p1205
ag1205
aVMethod
p1206
aVResult
p1207
ag1207
aVMethod
p1208
ag1208
aVConclusion
p1209
ag1209
aS'Method'
p1210
ag1210
aVResult
p1211
ag1211
aVConclusion
p1212
ag1212
aVResult
p1213
ag1213
ag1213
aVDifference
p1214
aVConclusion
p1215
ag1215
ag1215
aVConnection
p1216
aVConclusion
p1217
ag1217
ag1217
aS'Method'
p1218
aVResult
p1219
ag1219
ag1219
aVConclusion
p1220
aS'Method'
p1221
ag1221
aVBackground
p1222
aVResult
p1223
ag1223
ag1223
ag1223
ag1223
aS'Method'
p1224
aVResult
p1225
ag1225
aVMethod
p1226
aS'Background'
p1227
aVMethod
p1228
aVResult
p1229
ag1229
ag1229
aVConclusion
p1230
aS'Conclusion'
p1231
ag1231
ag1231
aS'Conclusion'
p1232
ag1232
ag1232
ag1232
ag1232
aS'Background'
p1233
ag1233
ag1233
aS'Problem'
p1234
aVBackground
p1235
ag1235
aS'Background'
p1236
ag1236
ag1236
aVConclusion
p1237
aS'Connection'
p1238
ag1238
ag1238
ag1238
aVConclusion
p1239
ag1239
aVBackground
p1240
ag1240
aS'Problem'
p1241
aVConclusion
p1242
ag1242
ag1242
aVConnection
p1243
aVConclusion
p1244
ag1244
ag1244
aS'Conclusion'
p1245
ag1245
ag1245
aS'Background'
p1246
ag1246
aVProblem
p1247
ag1247
aVMethod
p1248
ag1248
aVResult
p1249
ag1249
ag1249
ag1249
ag1249
ag1249
aVConclusion
p1250
aS'Background'
p1251
ag1251
ag1251
ag1251
ag1251
ag1251
aS'Background'
p1252
ag1252
ag1252
ag1252
ag1252
ag1252
aS'Background'
p1253
ag1253
ag1253
ag1253
ag1253
ag1253
aVConclusion
p1254
aS'Background'
p1255
ag1255
ag1255
aVProblem
p1256
aVMethod
p1257
ag1257
ag1257
aVConclusion
p1258
aS'Method'
p1259
ag1259
ag1259
ag1259
aS'Method'
p1260
ag1260
ag1260
ag1260
ag1260
ag1260
ag1260
ag1260
ag1260
ag1260
ag1260
ag1260
ag1260
ag1260
aS'Method'
p1261
ag1261
ag1261
ag1261
aS'Method'
p1262
ag1262
ag1262
ag1262
ag1262
aS'Method'
p1263
ag1263
ag1263
ag1263
ag1263
ag1263
aS'Method'
p1264
ag1264
ag1264
aS'Method'
p1265
ag1265
ag1265
ag1265
ag1265
ag1265
aS'Method'
p1266
ag1266
ag1266
ag1266
aS'Problem'
p1267
aVMethod
p1268
aS'Method'
p1269
aVResult
p1270
ag1270
ag1270
ag1270
aS'Method'
p1271
aVResult
p1272
ag1272
ag1272
ag1272
ag1272
ag1272
aS'Method'
p1273
aVResult
p1274
ag1274
ag1274
ag1274
ag1274
aS'Result'
p1275
ag1275
ag1275
aVConclusion
p1276
aVResult
p1277
ag1277
ag1277
aVConclusion
p1278
aS'Result'
p1279
ag1279
ag1279
aS'Result'
p1280
ag1280
ag1280
ag1280
aS'Result'
p1281
ag1281
ag1281
ag1281
ag1281
ag1281
ag1281
ag1281
aS'Result'
p1282
ag1282
ag1282
ag1282
ag1282
ag1282
aS'Result'
p1283
ag1283
ag1283
ag1283
ag1283
aS'Conclusion'
p1284
aS'Conclusion'
p1285
ag1285
aVConnection
p1286
aS'Conclusion'
p1287
ag1287
aVConnection
p1288
ag1288
aS'Conclusion'
p1289
ag1289
aVBackground
p1290
aS'Background'
p1291
aVConclusion
p1292
ag1292
ag1292
aS'Conclusion'
p1293
ag1293
ag1293
aVConnection
p1294
ag1294
ag1294
aVConclusion
p1295
ag1295
aS'Conclusion'
p1296
ag1296
aVConnection
p1297
ag1297
ag1297
aS'Problem'
p1298
ag1298
aVConclusion
p1299
aS'Conclusion'
p1300
ag1300
ag1300
ag1300
ag1300
ag1300
ag1300
ag1300
ag1300
ag1300
ag1300
ag1300
ag1300
aS'Problem'
p1301
ag1301
aVBackground
p1302
ag1302
ag1302
ag1302
aS'Background'
p1303
ag1303
ag1303
ag1303
ag1303
ag1303
aS'Background'
p1304
ag1304
aS'Conclusion'
p1305
ag1305
ag1305
aVBackground
p1306
aVConclusion
p1307
ag1307
ag1307
ag1307
ag1307
aS'Background'
p1308
ag1308
aVConclusion
p1309
ag1309
aVBackground
p1310
aVConclusion
p1311
aS'Background'
p1312
ag1312
aVResult
p1313
ag1313
aVMethod
p1314
aVResult
p1315
aVConclusion
p1316
aVResult
p1317
ag1317
aVMethod
p1318
aVResult
p1319
ag1319
ag1319
aVConclusion
p1320
aS'Background'
p1321
ag1321
ag1321
ag1321
ag1321
aS'Background'
p1322
ag1322
ag1322
ag1322
ag1322
ag1322
ag1322
ag1322
ag1322
aS'Background'
p1323
ag1323
ag1323
ag1323
ag1323
ag1323
aVProblem
p1324
aS'Problem'
p1325
aVMethod
p1326
ag1326
ag1326
ag1326
aS'Method'
p1327
ag1327
ag1327
ag1327
aS'Method'
p1328
ag1328
ag1328
ag1328
ag1328
ag1328
ag1328
ag1328
ag1328
aS'Method'
p1329
ag1329
ag1329
ag1329
aS'Method'
p1330
ag1330
ag1330
ag1330
ag1330
ag1330
ag1330
ag1330
ag1330
aS'Method'
p1331
ag1331
ag1331
ag1331
ag1331
ag1331
ag1331
ag1331
aS'Method'
p1332
ag1332
ag1332
ag1332
ag1332
ag1332
ag1332
aS'Method'
p1333
ag1333
ag1333
ag1333
ag1333
ag1333
aS'Method'
p1334
ag1334
ag1334
ag1334
ag1334
ag1334
ag1334
ag1334
ag1334
ag1334
aS'Result'
p1335
ag1335
aVMethod
p1336
aVConclusion
p1337
aS'Result'
p1338
ag1338
ag1338
ag1338
ag1338
ag1338
aS'Result'
p1339
ag1339
ag1339
ag1339
ag1339
aS'Method'
p1340
ag1340
aVResult
p1341
ag1341
ag1341
aS'Method'
p1342
aVResult
p1343
ag1343
aVConclusion
p1344
aVResult
p1345
ag1345
ag1345
ag1345
aS'Method'
p1346
aVResult
p1347
ag1347
ag1347
ag1347
ag1347
ag1347
aS'Method'
p1348
aVResult
p1349
ag1349
ag1349
ag1349
ag1349
ag1349
ag1349
ag1349
ag1349
ag1349
ag1349
aS'Result'
p1350
ag1350
ag1350
ag1350
ag1350
ag1350
ag1350
ag1350
ag1350
ag1350
ag1350
aS'Method'
p1351
ag1351
aVResult
p1352
aVConnection
p1353
aVConclusion
p1354
aVResult
p1355
ag1355
ag1355
ag1355
ag1355
ag1355
ag1355
ag1355
ag1355
ag1355
ag1355
ag1355
ag1355
aS'Method'
p1356
ag1356
aVResult
p1357
ag1357
ag1357
ag1357
ag1357
ag1357
ag1357
ag1357
ag1357
aS'Background'
p1358
aVConclusion
p1359
aVMethod
p1360
aVResult
p1361
ag1361
aVConclusion
p1362
ag1362
aS'Method'
p1363
ag1363
aVResult
p1364
aVMethod
p1365
aVResult
p1366
ag1366
aVBackground
p1367
ag1367
aVResult
p1368
aVConclusion
p1369
aS'Conclusion'
p1370
aVMethod
p1371
aVResult
p1372
ag1372
aVConclusion
p1373
ag1373
aS'Method'
p1374
ag1374
ag1374
ag1374
aVResult
p1375
ag1375
aVConclusion
p1376
aS'Conclusion'
p1377
ag1377
ag1377
ag1377
ag1377
ag1377
ag1377
ag1377
ag1377
ag1377
ag1377
ag1377
ag1377
aS'Conclusion'
p1378
ag1378
ag1378
ag1378
ag1378
ag1378
ag1378
ag1378
ag1378
ag1378
aS'Connection'
p1379
ag1379
ag1379
ag1379
aVConclusion
p1380
ag1380
ag1380
aVBackground
p1381
ag1381
aVConclusion
p1382
ag1382
ag1382
ag1382
aS'Difference'
p1383
ag1383
ag1383
aVConclusion
p1384
ag1384
ag1384
ag1384
aVConnection
p1385
ag1385
aVConclusion
p1386
ag1386
aS'Background'
p1387
ag1387
aVConclusion
p1388
ag1388
ag1388
aS'Background'
p1389
ag1389
aVConclusion
p1390
ag1390
ag1390
ag1390
ag1390
aS'Conclusion'
p1391
ag1391
ag1391
ag1391
ag1391
ag1391
aS'Background'
p1392
ag1392
ag1392
ag1392
aVMethod
p1393
aVResult
p1394
aVConclusion
p1395
aVResult
p1396
ag1396
aVConclusion
p1397
ag1397
aS'Background'
p1398
ag1398
ag1398
ag1398
ag1398
ag1398
ag1398
ag1398
aVProblem
p1399
aS'Background'
p1400
ag1400
ag1400
ag1400
ag1400
ag1400
ag1400
ag1400
ag1400
aS'Background'
p1401
ag1401
ag1401
ag1401
ag1401
ag1401
ag1401
ag1401
ag1401
ag1401
ag1401
ag1401
aS'Problem'
p1402
aVConclusion
p1403
ag1403
aS'Method'
p1404
ag1404
ag1404
aS'Method'
p1405
ag1405
ag1405
ag1405
ag1405
ag1405
ag1405
ag1405
ag1405
ag1405
aS'Method'
p1406
ag1406
ag1406
aS'Method'
p1407
aS'Method'
p1408
ag1408
ag1408
ag1408
ag1408
aS'Method'
p1409
ag1409
aS'Problem'
p1410
aVMethod
p1411
aVBackground
p1412
aVMethod
p1413
aVResult
p1414
ag1414
ag1414
aVProblem
p1415
aVBackground
p1416
aVMethod
p1417
aVResult
p1418
ag1418
aVConclusion
p1419
ag1419
aVResult
p1420
aS'Background'
p1421
aVProblem
p1422
aVMethod
p1423
aVResult
p1424
ag1424
ag1424
ag1424
aVMethod
p1425
aVBackground
p1426
aVConclusion
p1427
ag1427
ag1427
aS'Background'
p1428
ag1428
aVMethod
p1429
ag1429
aVResult
p1430
aS'Background'
p1431
aVMethod
p1432
aVBackground
p1433
aVResult
p1434
aVConclusion
p1435
aVMethod
p1436
ag1436
aVResult
p1437
ag1437
aS'Problem'
p1438
aVBackground
p1439
ag1439
aVMethod
p1440
aVResult
p1441
ag1441
aVConclusion
p1442
ag1442
aS'Problem'
p1443
aVMethod
p1444
aVBackground
p1445
aVMethod
p1446
aVConclusion
p1447
ag1447
aS'Background'
p1448
aVResult
p1449
aVBackground
p1450
aVResult
p1451
aVBackground
p1452
aVResult
p1453
ag1453
aVConclusion
p1454
ag1454
aS'Background'
p1455
aVResult
p1456
ag1456
aVConclusion
p1457
aVConnection
p1458
aVProblem
p1459
aVResult
p1460
ag1460
ag1460
aVConclusion
p1461
ag1461
aVMethod
p1462
aVResult
p1463
aVConclusion
p1464
aVMethod
p1465
aVResult
p1466
aVConclusion
p1467
aS'Background'
p1468
ag1468
aVProblem
p1469
aVMethod
p1470
aVConclusion
p1471
ag1471
ag1471
aS'Background'
p1472
ag1472
aVConclusion
p1473
ag1473
aS'Background'
p1474
ag1474
ag1474
ag1474
ag1474
ag1474
ag1474
aVConclusion
p1475
ag1475
ag1475
aS'Background'
p1476
ag1476
ag1476
ag1476
ag1476
ag1476
ag1476
aVConclusion
p1477
ag1477
ag1477
aVBackground
p1478
ag1478
aVConclusion
p1479
ag1479
aS'Conclusion'
p1480
aVConnection
p1481
ag1481
ag1481
ag1481
aVConclusion
p1482
aVDifference
p1483
aVConclusion
p1484
aS'Conclusion'
p1485
aVConnection
p1486
ag1486
aVConclusion
p1487
ag1487
aS'Background'
p1488
ag1488
ag1488
ag1488
aVConclusion
p1489
aS'Conclusion'
p1490
aVConnection
p1491
ag1491
aVConclusion
p1492
ag1492
aS'Conclusion'
p1493
aVConnection
p1494
ag1494
aVConclusion
p1495
ag1495
aS'Conclusion'
p1496
ag1496
ag1496
ag1496
aVBackground
p1497
ag1497
aVConclusion
p1498
ag1498
ag1498
ag1498
ag1498
aS'Background'
p1499
aVConclusion
p1500
ag1500
ag1500
ag1500
ag1500
aS'Method'
p1501
ag1501
ag1501
aVResult
p1502
ag1502
ag1502
ag1502
aVConclusion
p1503
ag1503
ag1503
aS'Background'
p1504
ag1504
ag1504
ag1504
ag1504
aS'Background'
p1505
ag1505
ag1505
ag1505
ag1505
ag1505
aVProblem
p1506
aS'Background'
p1507
ag1507
ag1507
ag1507
aVProblem
p1508
ag1508
ag1508
aS'Problem'
p1509
ag1509
aVMethod
p1510
ag1510
aS'Method'
p1511
ag1511
ag1511
ag1511
ag1511
ag1511
ag1511
ag1511
ag1511
ag1511
aS'Method'
p1512
ag1512
ag1512
ag1512
ag1512
aS'Method'
p1513
ag1513
ag1513
ag1513
ag1513
ag1513
ag1513
ag1513
ag1513
ag1513
aS'Method'
p1514
ag1514
ag1514
aS'Method'
p1515
ag1515
ag1515
ag1515
aS'Method'
p1516
ag1516
ag1516
aS'Method'
p1517
ag1517
ag1517
ag1517
ag1517
ag1517
aS'Method'
p1518
ag1518
ag1518
ag1518
aS'Method'
p1519
ag1519
ag1519
ag1519
ag1519
ag1519
aS'Method'
p1520
ag1520
ag1520
ag1520
ag1520
aS'Method'
p1521
ag1521
ag1521
ag1521
ag1521
ag1521
ag1521
aS'Method'
p1522
ag1522
ag1522
ag1522
aS'Method'
p1523
ag1523
ag1523
ag1523
ag1523
ag1523
ag1523
ag1523
aS'Result'
p1524
ag1524
ag1524
ag1524
aS'Method'
p1525
aVResult
p1526
ag1526
ag1526
ag1526
ag1526
ag1526
ag1526
ag1526
ag1526
aS'Result'
p1527
ag1527
ag1527
ag1527
aS'Result'
p1528
aS'Result'
p1529
ag1529
ag1529
ag1529
aVConclusion
p1530
aS'Result'
p1531
ag1531
ag1531
ag1531
ag1531
ag1531
ag1531
aS'Result'
p1532
ag1532
ag1532
ag1532
aS'Background'
p1533
aVMethod
p1534
aVResult
p1535
ag1535
ag1535
aVMethod
p1536
aVResult
p1537
aS'Conclusion'
p1538
ag1538
ag1538
ag1538
ag1538
ag1538
ag1538
ag1538
aVDifference
p1539
ag1539
aVConclusion
p1540
ag1540
ag1540
aS'Conclusion'
p1541
ag1541
ag1541
ag1541
aVConnection
p1542
aVDifference
p1543
ag1543
aVConclusion
p1544
ag1544
ag1544
ag1544
ag1544
ag1544
aS'Background'
p1545
ag1545
aVConclusion
p1546
ag1546
ag1546
ag1546
ag1546
aVDifference
p1547
ag1547
aVConclusion
p1548
ag1548
aVConnection
p1549
aVDifference
p1550
ag1550
aVConclusion
p1551
ag1551
ag1551
ag1551
ag1551
aS'Conclusion'
p1552
ag1552
ag1552
ag1552
ag1552
ag1552
aS'Background'
p1553
aVProblem
p1554
aVResult
p1555
ag1555
ag1555
aVProblem
p1556
aVResult
p1557
ag1557
ag1557
aVConclusion
p1558
aS'Background'
p1559
ag1559
ag1559
ag1559
aS'Background'
p1560
ag1560
ag1560
ag1560
ag1560
ag1560
ag1560
aS'Background'
p1561
ag1561
ag1561
aS'Problem'
p1562
aVConclusion
p1563
ag1563
aS'Method'
p1564
ag1564
ag1564
ag1564
aS'Method'
p1565
ag1565
ag1565
aS'Method'
p1566
ag1566
ag1566
ag1566
ag1566
aS'Method'
p1567
ag1567
ag1567
ag1567
ag1567
ag1567
ag1567
ag1567
ag1567
ag1567
ag1567
ag1567
aS'Method'
p1568
ag1568
ag1568
ag1568
ag1568
ag1568
ag1568
ag1568
aS'Method'
p1569
ag1569
ag1569
aS'Method'
p1570
ag1570
ag1570
aS'Method'
p1571
ag1571
ag1571
ag1571
aS'Method'
p1572
ag1572
aS'Method'
p1573
ag1573
ag1573
ag1573
ag1573
ag1573
ag1573
ag1573
aS'Method'
p1574
ag1574
ag1574
ag1574
ag1574
ag1574
ag1574
ag1574
aS'Method'
p1575
ag1575
ag1575
aS'Method'
p1576
ag1576
ag1576
ag1576
ag1576
aS'Result'
p1577
ag1577
ag1577
ag1577
ag1577
ag1577
ag1577
ag1577
ag1577
aVConclusion
p1578
aS'Result'
p1579
ag1579
ag1579
aS'Result'
p1580
ag1580
aVConclusion
p1581
aS'Background'
p1582
aVResult
p1583
aVMethod
p1584
aS'Background'
p1585
ag1585
aVResult
p1586
aVBackground
p1587
aVResult
p1588
ag1588
ag1588
ag1588
ag1588
ag1588
aS'Background'
p1589
ag1589
aVResult
p1590
ag1590
ag1590
aS'Problem'
p1591
aVMethod
p1592
aS'Conclusion'
p1593
aVMethod
p1594
ag1594
aVResult
p1595
ag1595
ag1595
ag1595
aS'Background'
p1596
aVResult
p1597
ag1597
ag1597
ag1597
aVMethod
p1598
aVResult
p1599
ag1599
ag1599
ag1599
aS'Background'
p1600
aVResult
p1601
ag1601
ag1601
aVMethod
p1602
aVResult
p1603
aVConclusion
p1604
aVResult
p1605
aVConclusion
p1606
aS'Background'
p1607
aVProblem
p1608
aVResult
p1609
ag1609
ag1609
aS'Problem'
p1610
aVConclusion
p1611
ag1611
ag1611
aS'Background'
p1612
ag1612
ag1612
ag1612
ag1612
aS'Background'
p1613
ag1613
aVConnection
p1614
aVBackground
p1615
ag1615
ag1615
aVConclusion
p1616
ag1616
aS'Background'
p1617
ag1617
aVConclusion
p1618
ag1618
ag1618
ag1618
aS'Conclusion'
p1619
ag1619
aS'Background'
p1620
ag1620
aVMethod
p1621
ag1621
aVResult
p1622
ag1622
ag1622
ag1622
aVConclusion
p1623
aS'Background'
p1624
ag1624
ag1624
ag1624
ag1624
aS'Background'
p1625
ag1625
ag1625
ag1625
ag1625
ag1625
ag1625
ag1625
ag1625
aS'Problem'
p1626
aVMethod
p1627
aVProblem
p1628
aS'Method'
p1629
ag1629
ag1629
ag1629
ag1629
ag1629
aS'Method'
p1630
ag1630
ag1630
ag1630
ag1630
ag1630
ag1630
aS'Method'
p1631
ag1631
ag1631
ag1631
aS'Method'
p1632
ag1632
ag1632
ag1632
ag1632
ag1632
ag1632
ag1632
aS'Method'
p1633
aS'Method'
p1634
ag1634
ag1634
ag1634
aS'Method'
p1635
ag1635
ag1635
ag1635
aS'Method'
p1636
ag1636
ag1636
ag1636
aS'Method'
p1637
ag1637
ag1637
ag1637
ag1637
aS'Result'
p1638
ag1638
ag1638
ag1638
ag1638
ag1638
ag1638
aS'Result'
p1639
ag1639
ag1639
ag1639
ag1639
ag1639
aS'Result'
p1640
ag1640
ag1640
ag1640
ag1640
ag1640
ag1640
ag1640
aS'Result'
p1641
ag1641
ag1641
aS'Conclusion'
p1642
ag1642
ag1642
ag1642
ag1642
ag1642
aS'Connection'
p1643
ag1643
ag1643
ag1643
ag1643
ag1643
ag1643
ag1643
ag1643
ag1643
aVDifference
p1644
ag1644
aS'Background'
p1645
ag1645
ag1645
ag1645
ag1645
ag1645
ag1645
aS'Conclusion'
p1646
ag1646
ag1646
aVConnection
p1647
aVConclusion
p1648
aVConnection
p1649
ag1649
aVConclusion
p1650
aS'Conclusion'
p1651
aVDifference
p1652
ag1652
ag1652
ag1652
ag1652
ag1652
ag1652
aVConclusion
p1653
aS'Background'
p1654
ag1654
ag1654
ag1654
ag1654
aS'Conclusion'
p1655
ag1655
ag1655
ag1655
ag1655
ag1655
aS'Connection'
p1656
aVConclusion
p1657
ag1657
aVConnection
p1658
ag1658
ag1658
ag1658
ag1658
aVConclusion
p1659
ag1659
ag1659
ag1659
aS'Background'
p1660
aVProblem
p1661
aVMethod
p1662
aVResult
p1663
ag1663
ag1663
ag1663
aVConclusion
p1664
ag1664
aS'Background'
p1665
ag1665
ag1665
ag1665
ag1665
ag1665
ag1665
ag1665
ag1665
ag1665
aVConclusion
p1666
aS'Background'
p1667
ag1667
aS'Background'
p1668
ag1668
ag1668
aS'Problem'
p1669
aS'Method'
p1670
ag1670
ag1670
ag1670
ag1670
ag1670
aS'Method'
p1671
ag1671
ag1671
ag1671
aS'Method'
p1672
ag1672
ag1672
ag1672
ag1672
ag1672
aS'Method'
p1673
ag1673
ag1673
ag1673
ag1673
ag1673
ag1673
aS'Method'
p1674
ag1674
ag1674
ag1674
aS'Method'
p1675
aS'Method'
p1676
ag1676
ag1676
ag1676
ag1676
ag1676
ag1676
ag1676
ag1676
ag1676
aS'Method'
p1677
ag1677
aS'Method'
p1678
ag1678
ag1678
aS'Method'
p1679
aS'Result'
p1680
ag1680
ag1680
aS'Result'
p1681
ag1681
ag1681
ag1681
ag1681
ag1681
ag1681
aS'Result'
p1682
ag1682
ag1682
ag1682
ag1682
ag1682
ag1682
ag1682
ag1682
aS'Result'
p1683
ag1683
ag1683
aS'Method'
p1684
aVResult
p1685
ag1685
ag1685
ag1685
ag1685
aS'Conclusion'
p1686
aVResult
p1687
ag1687
ag1687
aS'Background'
p1688
aVConclusion
p1689
ag1689
ag1689
aS'Conclusion'
p1690
aVConnection
p1691
ag1691
ag1691
aS'Conclusion'
p1692
ag1692
ag1692
aVDifference
p1693
ag1693
aVConclusion
p1694
ag1694
aS'Background'
p1695
ag1695
aVConclusion
p1696
aVBackground
p1697
aVConclusion
p1698
aVConnection
p1699
ag1699
ag1699
aS'Conclusion'
p1700
aVConnection
p1701
ag1701
ag1701
ag1701
ag1701
aVConclusion
p1702
aS'Connection'
p1703
ag1703
aVBackground
p1704
aVConclusion
p1705
aVConnection
p1706
aS'Background'
p1707
ag1707
ag1707
aVConnection
p1708
ag1708
aVConclusion
p1709
aVConnection
p1710
ag1710
ag1710
aVConclusion
p1711
ag1711
ag1711
aS'Background'
p1712
ag1712
aVConnection
p1713
ag1713
ag1713
aVConclusion
p1714
aS'Background'
p1715
ag1715
ag1715
aVConclusion
p1716
aS'Conclusion'
p1717
ag1717
ag1717
ag1717
ag1717
aS'Background'
p1718
aVProblem
p1719
aVConclusion
p1720
aVResult
p1721
ag1721
ag1721
aVConclusion
p1722
ag1722
ag1722
aS'Background'
p1723
ag1723
ag1723
aS'Background'
p1724
ag1724
ag1724
ag1724
aS'Background'
p1725
ag1725
ag1725
aVMethod
p1726
aVResult
p1727
aVMethod
p1728
aVConclusion
p1729
aS'Method'
p1730
ag1730
ag1730
ag1730
ag1730
ag1730
ag1730
aS'Method'
p1731
ag1731
ag1731
ag1731
ag1731
aS'Method'
p1732
ag1732
ag1732
ag1732
aS'Method'
p1733
ag1733
ag1733
aS'Method'
p1734
ag1734
ag1734
aS'Method'
p1735
ag1735
ag1735
ag1735
ag1735
ag1735
ag1735
aS'Method'
p1736
ag1736
ag1736
ag1736
aS'Method'
p1737
ag1737
ag1737
ag1737
ag1737
ag1737
ag1737
aS'Method'
p1738
ag1738
ag1738
ag1738
ag1738
ag1738
aS'Method'
p1739
aVResult
p1740
ag1740
ag1740
ag1740
ag1740
ag1740
aS'Method'
p1741
aVResult
p1742
ag1742
ag1742
ag1742
aS'Method'
p1743
aVResult
p1744
ag1744
ag1744
aVConclusion
p1745
aS'Conclusion'
p1746
aVConnection
p1747
aVResult
p1748
ag1748
aS'Method'
p1749
aVConclusion
p1750
aVMethod
p1751
aVResult
p1752
ag1752
ag1752
aVConclusion
p1753
aS'Conclusion'
p1754
aVResult
p1755
aVMethod
p1756
aS'Result'
p1757
aVConclusion
p1758
ag1758
aVResult
p1759
ag1759
aVConclusion
p1760
aS'Result'
p1761
ag1761
ag1761
ag1761
aS'Background'
p1762
aVMethod
p1763
aVResult
p1764
aVConclusion
p1765
aS'Method'
p1766
aVBackground
p1767
aVResult
p1768
ag1768
ag1768
aS'Problem'
p1769
aVResult
p1770
ag1770
aS'Method'
p1771
aVResult
p1772
ag1772
ag1772
ag1772
aS'Result'
p1773
aVConclusion
p1774
aVResult
p1775
aVConclusion
p1776
aS'Background'
p1777
ag1777
aVConclusion
p1778
ag1778
ag1778
ag1778
aS'Connection'
p1779
aVBackground
p1780
ag1780
ag1780
aVConnection
p1781
aVConclusion
p1782
aVConnection
p1783
aVConclusion
p1784
aS'Background'
p1785
ag1785
ag1785
aVConclusion
p1786
ag1786
ag1786
aS'Conclusion'
p1787
aVConnection
p1788
aVBackground
p1789
aVConclusion
p1790
aS'Method'
p1791
ag1791
aS'Conclusion'
p1792
ag1792
aVConnection
p1793
aVBackground
p1794
aVConclusion
p1795
aVConnection
p1796
aVConclusion
p1797
aS'Conclusion'
p1798
aVBackground
p1799
ag1799
aS'Conclusion'
p1800
ag1800
aVDifference
p1801
aVConclusion
p1802
ag1802
aS'Background'
p1803
ag1803
ag1803
aVConclusion
p1804
ag1804
aS'Conclusion'
p1805
ag1805
ag1805
aS'Problem'
p1806
ag1806
ag1806
aS'Problem'
p1807
aS'Method'
p1808
aS'Result'
p1809
ag1809
ag1809
ag1809
ag1809
ag1809
aS'Conclusion'
p1810
ag1810
ag1810
aS'Background'
p1811
aVMethod
p1812
ag1812
aVResult
p1813
ag1813
aVConclusion
p1814
aS'Background'
p1815
ag1815
ag1815
ag1815
ag1815
ag1815
ag1815
ag1815
ag1815
ag1815
aS'Background'
p1816
ag1816
ag1816
ag1816
ag1816
ag1816
aS'Background'
p1817
ag1817
ag1817
ag1817
ag1817
ag1817
aS'Background'
p1818
ag1818
ag1818
ag1818
ag1818
ag1818
ag1818
ag1818
aS'Method'
p1819
ag1819
aVBackground
p1820
ag1820
ag1820
ag1820
ag1820
aS'Method'
p1821
ag1821
ag1821
ag1821
ag1821
ag1821
ag1821
ag1821
ag1821
aS'Method'
p1822
ag1822
ag1822
ag1822
ag1822
ag1822
aS'Method'
p1823
ag1823
ag1823
ag1823
ag1823
aS'Method'
p1824
ag1824
ag1824
aS'Method'
p1825
ag1825
ag1825
aS'Method'
p1826
ag1826
ag1826
ag1826
ag1826
aS'Method'
p1827
ag1827
ag1827
ag1827
ag1827
aS'Method'
p1828
ag1828
ag1828
ag1828
aS'Method'
p1829
ag1829
ag1829
ag1829
ag1829
ag1829
ag1829
ag1829
ag1829
aS'Method'
p1830
ag1830
ag1830
ag1830
aS'Method'
p1831
ag1831
aS'Method'
p1832
ag1832
aVBackground
p1833
ag1833
ag1833
aVResult
p1834
ag1834
ag1834
aS'Background'
p1835
ag1835
ag1835
ag1835
ag1835
ag1835
ag1835
ag1835
ag1835
aVResult
p1836
ag1836
ag1836
ag1836
aS'Result'
p1837
ag1837
ag1837
aVMethod
p1838
ag1838
aS'Method'
p1839
aVResult
p1840
ag1840
aS'Method'
p1841
ag1841
aVResult
p1842
aVConnection
p1843
ag1843
aVResult
p1844
ag1844
ag1844
ag1844
aVConclusion
p1845
aS'Background'
p1846
ag1846
aVProblem
p1847
aVMethod
p1848
aVResult
p1849
ag1849
aVConnection
p1850
ag1850
aVResult
p1851
aS'Method'
p1852
aVResult
p1853
aVConclusion
p1854
aVResult
p1855
ag1855
ag1855
ag1855
ag1855
aVConclusion
p1856
aS'Result'
p1857
aVProblem
p1858
aVResult
p1859
aVMethod
p1860
aVResult
p1861
ag1861
aVConclusion
p1862
aS'Background'
p1863
ag1863
aVResult
p1864
ag1864
ag1864
ag1864
ag1864
ag1864
ag1864
ag1864
aVConclusion
p1865
aS'Conclusion'
p1866
aVConnection
p1867
ag1867
aVConclusion
p1868
aS'Conclusion'
p1869
ag1869
ag1869
ag1869
aVConnection
p1870
ag1870
ag1870
aVConclusion
p1871
ag1871
aVBackground
p1872
ag1872
aS'Conclusion'
p1873
aVBackground
p1874
ag1874
aVConclusion
p1875
ag1875
aS'Background'
p1876
ag1876
ag1876
ag1876
ag1876
ag1876
aVConclusion
p1877
aS'Background'
p1878
aVConnection
p1879
aVBackground
p1880
ag1880
ag1880
ag1880
ag1880
aVConclusion
p1881
ag1881
aS'Conclusion'
p1882
ag1882
ag1882
ag1882
aS'Conclusion'
p1883
ag1883
ag1883
ag1883
aS'Background'
p1884
aS'Problem'
p1885
aS'Method'
p1886
ag1886
aS'Result'
p1887
ag1887
ag1887
aS'Conclusion'
p1888
ag1888
aS'Background'
p1889
aVProblem
p1890
ag1890
aVMethod
p1891
ag1891
aVResult
p1892
ag1892
aVConclusion
p1893
ag1893
aS'Background'
p1894
ag1894
ag1894
aS'Background'
p1895
ag1895
ag1895
ag1895
ag1895
ag1895
ag1895
ag1895
ag1895
ag1895
ag1895
ag1895
ag1895
ag1895
ag1895
ag1895
ag1895
ag1895
ag1895
aVProblem
p1896
ag1896
ag1896
aVMethod
p1897
ag1897
aVConclusion
p1898
aS'Method'
p1899
ag1899
ag1899
ag1899
ag1899
aS'Method'
p1900
ag1900
ag1900
ag1900
ag1900
ag1900
ag1900
aS'Method'
p1901
ag1901
ag1901
ag1901
ag1901
ag1901
ag1901
ag1901
ag1901
ag1901
aS'Method'
p1902
ag1902
aVBackground
p1903
ag1903
ag1903
aVMethod
p1904
ag1904
ag1904
ag1904
ag1904
ag1904
ag1904
ag1904
aS'Method'
p1905
ag1905
ag1905
ag1905
ag1905
aS'Method'
p1906
ag1906
ag1906
ag1906
ag1906
ag1906
ag1906
ag1906
ag1906
ag1906
ag1906
aS'Method'
p1907
ag1907
ag1907
ag1907
ag1907
ag1907
ag1907
ag1907
ag1907
aS'Method'
p1908
ag1908
ag1908
ag1908
aS'Method'
p1909
ag1909
ag1909
ag1909
ag1909
aS'Method'
p1910
ag1910
ag1910
aS'Method'
p1911
aVResult
p1912
ag1912
ag1912
ag1912
ag1912
aS'Method'
p1913
ag1913
ag1913
aVResult
p1914
ag1914
aS'Connection'
p1915
ag1915
ag1915
ag1915
aVResult
p1916
ag1916
ag1916
ag1916
aS'Result'
p1917
ag1917
ag1917
ag1917
ag1917
ag1917
ag1917
aS'Method'
p1918
ag1918
aVResult
p1919
ag1919
aS'Problem'
p1920
ag1920
aVMethod
p1921
aVResult
p1922
ag1922
ag1922
aVMethod
p1923
aS'Problem'
p1924
aVConclusion
p1925
ag1925
ag1925
ag1925
ag1925
ag1925
ag1925
ag1925
ag1925
ag1925
ag1925
ag1925
ag1925
ag1925
aS'Conclusion'
p1926
aVBackground
p1927
ag1927
ag1927
ag1927
ag1927
ag1927
ag1927
aVConclusion
p1928
ag1928
ag1928
ag1928
ag1928
aS'Problem'
p1929
aVConnection
p1930
ag1930
aVBackground
p1931
ag1931
aVConclusion
p1932
aVConnection
p1933
ag1933
aVConclusion
p1934
aS'Connection'
p1935
ag1935
ag1935
ag1935
aVConclusion
p1936
ag1936
ag1936
ag1936
ag1936
aVConnection
p1937
ag1937
aVConclusion
p1938
ag1938
ag1938
aVConnection
p1939
ag1939
aVConclusion
p1940
aS'Conclusion'
p1941
ag1941
ag1941
ag1941
ag1941
aVBackground
p1942
aVConclusion
p1943
ag1943
aVDifference
p1944
ag1944
ag1944
ag1944
ag1944
aVConclusion
p1945
ag1945
aVFuture
p1946
aVConclusion
p1947
aS'Conclusion'
p1948
ag1948
ag1948
ag1948
ag1948
ag1948
ag1948
ag1948
aS'Problem'
p1949
aS'Method'
p1950
ag1950
ag1950
ag1950
aS'Result'
p1951
aVMethod
p1952
aS'Conclusion'
p1953
ag1953
ag1953
aS'Background'
p1954
ag1954
ag1954
ag1954
ag1954
ag1954
aS'Background'
p1955
ag1955
ag1955
ag1955
aS'Background'
p1956
ag1956
ag1956
ag1956
ag1956
aVConclusion
p1957
aS'Background'
p1958
ag1958
aVProblem
p1959
ag1959
aS'Background'
p1960
ag1960
ag1960
ag1960
aVProblem
p1961
ag1961
ag1961
ag1961
aS'Problem'
p1962
ag1962
aVConclusion
p1963
aS'Method'
p1964
ag1964
aS'Method'
p1965
aS'Method'
p1966
ag1966
aS'Method'
p1967
ag1967
ag1967
ag1967
aS'Method'
p1968
aVBackground
p1969
aVMethod
p1970
ag1970
aVConclusion
p1971
aVMethod
p1972
ag1972
aS'Method'
p1973
ag1973
ag1973
ag1973
ag1973
ag1973
aS'Method'
p1974
ag1974
ag1974
ag1974
ag1974
ag1974
aS'Method'
p1975
ag1975
ag1975
aS'Method'
p1976
ag1976
ag1976
ag1976
aS'Result'
p1977
ag1977
aVProblem
p1978
aVResult
p1979
ag1979
ag1979
ag1979
ag1979
aVConclusion
p1980
aS'Method'
p1981
aS'Result'
p1982
aVMethod
p1983
aVResult
p1984
ag1984
aVConclusion
p1985
ag1985
aVResult
p1986
aS'Result'
p1987
ag1987
aS'Conclusion'
p1988
ag1988
aS'Result'
p1989
ag1989
ag1989
aS'Problem'
p1990
aVResult
p1991
ag1991
aS'Result'
p1992
ag1992
aVConclusion
p1993
aS'Conclusion'
p1994
ag1994
aS'Result'
p1995
ag1995
ag1995
aS'Background'
p1996
aVConclusion
p1997
ag1997
ag1997
aS'Conclusion'
p1998
ag1998
ag1998
aS'Background'
p1999
aVConclusion
p2000
ag2000
aS'Conclusion'
p2001
aVBackground
p2002
ag2002
ag2002
ag2002
ag2002
ag2002
aS'Conclusion'
p2003
ag2003
ag2003
aVConnection
p2004
aS'Background'
p2005
ag2005
aVConclusion
p2006
ag2006
ag2006
ag2006
aS'Background'
p2007
ag2007
aVConclusion
p2008
aS'Conclusion'
p2009
ag2009
ag2009
ag2009
ag2009
ag2009
aVBackground
p2010
aVConclusion
p2011
ag2011
aS'Conclusion'
p2012
ag2012
aS'Conclusion'
p2013
ag2013
ag2013
ag2013
ag2013
ag2013
ag2013
ag2013
ag2013
ag2013
ag2013
ag2013
aS'Connection'
p2014
aVConclusion
p2015
ag2015
ag2015
aS'Background'
p2016
aVProblem
p2017
aS'Problem'
p2018
aS'Background'
p2019
aS'Result'
p2020
ag2020
ag2020
ag2020
aS'Conclusion'
p2021
aS'Background'
p2022
ag2022
ag2022
ag2022
aS'Background'
p2023
ag2023
ag2023
ag2023
ag2023
aS'Background'
p2024
ag2024
ag2024
ag2024
ag2024
aVConclusion
p2025
aVBackground
p2026
ag2026
ag2026
ag2026
ag2026
aS'Background'
p2027
aVMethod
p2028
aS'Background'
p2029
ag2029
ag2029
ag2029
aS'Method'
p2030
ag2030
ag2030
aVConclusion
p2031
aS'Method'
p2032
ag2032
ag2032
ag2032
ag2032
ag2032
aS'Method'
p2033
ag2033
ag2033
ag2033
ag2033
ag2033
ag2033
aS'Method'
p2034
ag2034
ag2034
aS'Method'
p2035
aVResult
p2036
ag2036
ag2036
ag2036
aS'Result'
p2037
ag2037
aVMethod
p2038
ag2038
ag2038
ag2038
aVConnection
p2039
ag2039
aVMethod
p2040
ag2040
aS'Method'
p2041
ag2041
aS'Method'
p2042
ag2042
ag2042
ag2042
aS'Method'
p2043
ag2043
ag2043
ag2043
ag2043
ag2043
aS'Method'
p2044
ag2044
ag2044
aS'Result'
p2045
ag2045
ag2045
ag2045
aS'Result'
p2046
ag2046
ag2046
aS'Result'
p2047
ag2047
ag2047
ag2047
ag2047
ag2047
ag2047
ag2047
ag2047
aS'Result'
p2048
ag2048
aS'Result'
p2049
aVConclusion
p2050
aVResult
p2051
aS'Result'
p2052
ag2052
ag2052
aS'Result'
p2053
aVConnection
p2054
aS'Result'
p2055
ag2055
ag2055
aVConclusion
p2056
aS'Result'
p2057
aVConnection
p2058
aVResult
p2059
ag2059
aVConclusion
p2060
ag2060
aS'Connection'
p2061
aVResult
p2062
ag2062
ag2062
ag2062
ag2062
ag2062
aS'Conclusion'
p2063
aVResult
p2064
ag2064
ag2064
ag2064
aS'Background'
p2065
aVProblem
p2066
aVConnection
p2067
aS'Conclusion'
p2068
ag2068
ag2068
aS'Connection'
p2069
aVConclusion
p2070
ag2070
ag2070
aS'Conclusion'
p2071
ag2071
aVBackground
p2072
ag2072
aS'Conclusion'
p2073
aVConnection
p2074
aS'Conclusion'
p2075
aVProblem
p2076
ag2076
aVMethod
p2077
ag2077
aVConclusion
p2078
aVConnection
p2079
aVConclusion
p2080
ag2080
aVConnection
p2081
ag2081
aS'Conclusion'
p2082
ag2082
ag2082
ag2082
ag2082
ag2082
ag2082
aS'Difference'
p2083
ag2083
aVConclusion
p2084
ag2084
aS'Background'
p2085
ag2085
ag2085
aVConclusion
p2086
ag2086
ag2086
ag2086
aS'Background'
p2087
ag2087
aVConclusion
p2088
aVBackground
p2089
ag2089
ag2089
aVConclusion
p2090
ag2090
ag2090
aVBackground
p2091
ag2091
ag2091
ag2091
ag2091
aVConclusion
p2092
aS'Conclusion'
p2093
ag2093
aS'Background'
p2094
aVProblem
p2095
aS'Problem'
p2096
aS'Method'
p2097
ag2097
ag2097
aS'Result'
p2098
ag2098
aS'Conclusion'
p2099
aS'Background'
p2100
ag2100
ag2100
ag2100
ag2100
ag2100
aS'Background'
p2101
ag2101
ag2101
ag2101
ag2101
ag2101
aS'Background'
p2102
ag2102
ag2102
ag2102
ag2102
ag2102
ag2102
ag2102
ag2102
aS'Problem'
p2103
ag2103
aVBackground
p2104
ag2104
ag2104
ag2104
ag2104
ag2104
ag2104
ag2104
ag2104
ag2104
ag2104
ag2104
ag2104
ag2104
ag2104
ag2104
aVProblem
p2105
ag2105
aS'Background'
p2106
ag2106
aVConclusion
p2107
ag2107
aVMethod
p2108
ag2108
aS'Method'
p2109
ag2109
ag2109
ag2109
ag2109
ag2109
aS'Method'
p2110
ag2110
ag2110
aS'Method'
p2111
ag2111
aS'Method'
p2112
ag2112
ag2112
ag2112
ag2112
aS'Method'
p2113
ag2113
ag2113
aS'Method'
p2114
ag2114
ag2114
ag2114
ag2114
ag2114
ag2114
ag2114
ag2114
ag2114
ag2114
aS'Method'
p2115
ag2115
ag2115
ag2115
aS'Method'
p2116
ag2116
ag2116
ag2116
aS'Method'
p2117
ag2117
ag2117
aS'Method'
p2118
ag2118
ag2118
ag2118
ag2118
ag2118
ag2118
ag2118
aS'Method'
p2119
ag2119
aS'Method'
p2120
aVResult
p2121
ag2121
ag2121
ag2121
ag2121
ag2121
aS'Result'
p2122
ag2122
ag2122
ag2122
aS'Result'
p2123
ag2123
ag2123
ag2123
aS'Result'
p2124
ag2124
ag2124
ag2124
ag2124
ag2124
ag2124
ag2124
aS'Connection'
p2125
ag2125
ag2125
aVConclusion
p2126
ag2126
ag2126
aS'Conclusion'
p2127
ag2127
ag2127
ag2127
aVConnection
p2128
ag2128
aVConclusion
p2129
ag2129
ag2129
ag2129
ag2129
aVConnection
p2130
aVConclusion
p2131
aVConnection
p2132
ag2132
ag2132
ag2132
ag2132
ag2132
aVConclusion
p2133
ag2133
ag2133
aS'Background'
p2134
aVConclusion
p2135
ag2135
aVConnection
p2136
ag2136
ag2136
ag2136
ag2136
ag2136
ag2136
ag2136
aVDifference
p2137
ag2137
ag2137
ag2137
ag2137
ag2137
ag2137
aVConclusion
p2138
ag2138
aS'Conclusion'
p2139
aVDifference
p2140
ag2140
ag2140
aVConclusion
p2141
aS'Conclusion'
p2142
ag2142
ag2142
ag2142
aVConnection
p2143
ag2143
ag2143
ag2143
ag2143
aVConclusion
p2144
ag2144
aS'Conclusion'
p2145
ag2145
aVBackground
p2146
aVConclusion
p2147
aS'Background'
p2148
ag2148
ag2148
ag2148
ag2148
ag2148
aS'Conclusion'
p2149
ag2149
aVConnection
p2150
ag2150
ag2150
ag2150
ag2150
aVConclusion
p2151
ag2151
aS'Conclusion'
p2152
ag2152
aVConnection
p2153
ag2153
ag2153
ag2153
ag2153
aS'Background'
p2154
aVProblem
p2155
aS'Problem'
p2156
aS'Method'
p2157
ag2157
aS'Result'
p2158
ag2158
ag2158
aVConclusion
p2159
aS'Conclusion'
p2160
aS'Background'
p2161
ag2161
ag2161
ag2161
ag2161
ag2161
ag2161
ag2161
ag2161
ag2161
ag2161
ag2161
aS'Background'
p2162
ag2162
ag2162
ag2162
ag2162
ag2162
ag2162
ag2162
ag2162
ag2162
ag2162
ag2162
ag2162
ag2162
ag2162
ag2162
ag2162
ag2162
ag2162
ag2162
ag2162
ag2162
ag2162
ag2162
ag2162
ag2162
ag2162
ag2162
ag2162
aVConclusion
p2163
ag2163
ag2163
aVProblem
p2164
aS'Method'
p2165
ag2165
ag2165
ag2165
ag2165
ag2165
ag2165
ag2165
aS'Method'
p2166
ag2166
ag2166
aS'Method'
p2167
ag2167
ag2167
ag2167
ag2167
ag2167
ag2167
ag2167
ag2167
aS'Method'
p2168
ag2168
ag2168
ag2168
ag2168
ag2168
ag2168
ag2168
ag2168
ag2168
ag2168
ag2168
ag2168
ag2168
ag2168
ag2168
ag2168
aS'Method'
p2169
ag2169
ag2169
ag2169
ag2169
ag2169
ag2169
aS'Method'
p2170
ag2170
ag2170
ag2170
ag2170
aS'Method'
p2171
ag2171
ag2171
ag2171
ag2171
ag2171
ag2171
ag2171
ag2171
aS'Method'
p2172
ag2172
ag2172
ag2172
ag2172
ag2172
ag2172
aS'Method'
p2173
ag2173
aS'Background'
p2174
aVMethod
p2175
aVResult
p2176
aVMethod
p2177
ag2177
aVResult
p2178
aVConclusion
p2179
ag2179
aVResult
p2180
ag2180
aVConclusion
p2181
aS'Background'
p2182
ag2182
ag2182
ag2182
ag2182
aVMethod
p2183
aVResult
p2184
ag2184
aVConclusion
p2185
aS'Background'
p2186
ag2186
ag2186
ag2186
ag2186
aVMethod
p2187
aVConclusion
p2188
aVMethod
p2189
aVResult
p2190
aVConclusion
p2191
aS'Problem'
p2192
ag2192
ag2192
ag2192
aVResult
p2193
aVConclusion
p2194
aVResult
p2195
aVConclusion
p2196
ag2196
ag2196
ag2196
ag2196
ag2196
ag2196
aS'Method'
p2197
ag2197
aVResult
p2198
ag2198
aVConclusion
p2199
aS'Background'
p2200
ag2200
ag2200
ag2200
ag2200
ag2200
aVConclusion
p2201
ag2201
aVConnection
p2202
ag2202
aVConclusion
p2203
aS'Background'
p2204
ag2204
ag2204
ag2204
ag2204
ag2204
aVConclusion
p2205
ag2205
aS'Background'
p2206
ag2206
aVConclusion
p2207
ag2207
ag2207
aVConnection
p2208
ag2208
ag2208
ag2208
aVConclusion
p2209
aS'Background'
p2210
ag2210
ag2210
ag2210
ag2210
ag2210
ag2210
ag2210
ag2210
ag2210
ag2210
ag2210
ag2210
ag2210
ag2210
aVConnection
p2211
aVConclusion
p2212
aS'Conclusion'
p2213
ag2213
ag2213
ag2213
ag2213
aS'Conclusion'
p2214
ag2214
aS'Background'
p2215
ag2215
ag2215
ag2215
aVMethod
p2216
ag2216
aVResult
p2217
ag2217
aVConclusion
p2218
aS'Background'
p2219
ag2219
aS'Background'
p2220
ag2220
ag2220
ag2220
aVConclusion
p2221
aS'Background'
p2222
aVConclusion
p2223
aVBackground
p2224
ag2224
aVConclusion
p2225
aS'Background'
p2226
ag2226
ag2226
ag2226
ag2226
aS'Background'
p2227
ag2227
aVConclusion
p2228
aS'Background'
p2229
ag2229
ag2229
ag2229
ag2229
aS'Background'
p2230
aS'Problem'
p2231
ag2231
aVMethod
p2232
aS'Method'
p2233
ag2233
ag2233
ag2233
aS'Method'
p2234
ag2234
ag2234
ag2234
aS'Method'
p2235
ag2235
ag2235
aS'Method'
p2236
ag2236
ag2236
ag2236
ag2236
ag2236
aS'Method'
p2237
ag2237
ag2237
ag2237
ag2237
aS'Method'
p2238
ag2238
ag2238
aS'Method'
p2239
aS'Conclusion'
p2240
ag2240
aVConnection
p2241
ag2241
aVDifference
p2242
aVConclusion
p2243
ag2243
ag2243
aS'Conclusion'
p2244
aVDifference
p2245
aVConclusion
p2246
ag2246
ag2246
aS'Conclusion'
p2247
ag2247
ag2247
aVBackground
p2248
aVConclusion
p2249
aS'Conclusion'
p2250
ag2250
ag2250
ag2250
ag2250
ag2250
aS'Background'
p2251
ag2251
ag2251
ag2251
ag2251
aVConclusion
p2252
ag2252
ag2252
ag2252
aS'Conclusion'
p2253
ag2253
aVConnection
p2254
aVConclusion
p2255
ag2255
ag2255
ag2255
aS'Conclusion'
p2256
aS'Background'
p2257
ag2257
ag2257
ag2257
aS'Problem'
p2258
aVMethod
p2259
ag2259
aS'Result'
p2260
ag2260
ag2260
aS'Conclusion'
p2261
aS'Background'
p2262
ag2262
ag2262
ag2262
ag2262
ag2262
aVProblem
p2263
aS'Background'
p2264
aVProblem
p2265
ag2265
ag2265
ag2265
ag2265
ag2265
ag2265
ag2265
ag2265
ag2265
ag2265
aS'Method'
p2266
ag2266
ag2266
ag2266
ag2266
ag2266
aS'Method'
p2267
ag2267
ag2267
ag2267
ag2267
ag2267
ag2267
ag2267
ag2267
aS'Method'
p2268
ag2268
ag2268
ag2268
ag2268
ag2268
ag2268
ag2268
aS'Method'
p2269
ag2269
ag2269
ag2269
ag2269
ag2269
ag2269
ag2269
aS'Method'
p2270
aS'Method'
p2271
ag2271
aS'Method'
p2272
ag2272
ag2272
aS'Method'
p2273
ag2273
ag2273
ag2273
ag2273
ag2273
ag2273
ag2273
aS'Method'
p2274
ag2274
ag2274
ag2274
ag2274
aS'Method'
p2275
ag2275
aS'Method'
p2276
ag2276
ag2276
ag2276
aS'Method'
p2277
ag2277
ag2277
aS'Method'
p2278
ag2278
aS'Method'
p2279
ag2279
ag2279
ag2279
aS'Method'
p2280
ag2280
ag2280
ag2280
ag2280
aS'Method'
p2281
ag2281
ag2281
ag2281
aS'Method'
p2282
ag2282
ag2282
ag2282
ag2282
ag2282
ag2282
aS'Result'
p2283
ag2283
aS'Result'
p2284
ag2284
ag2284
ag2284
aS'Result'
p2285
ag2285
aVConclusion
p2286
aS'Result'
p2287
ag2287
aS'Method'
p2288
aVResult
p2289
ag2289
ag2289
aS'Result'
p2290
ag2290
ag2290
ag2290
ag2290
aS'Method'
p2291
ag2291
aVResult
p2292
ag2292
aS'Result'
p2293
ag2293
aS'Background'
p2294
ag2294
ag2294
ag2294
ag2294
aVConclusion
p2295
ag2295
ag2295
ag2295
ag2295
ag2295
ag2295
aVConnection
p2296
ag2296
ag2296
aS'Conclusion'
p2297
ag2297
ag2297
ag2297
ag2297
ag2297
ag2297
ag2297
aS'Conclusion'
p2298
aVDifference
p2299
ag2299
aVConclusion
p2300
ag2300
ag2300
ag2300
ag2300
ag2300
ag2300
aS'Conclusion'
p2301
ag2301
ag2301
aVConnection
p2302
ag2302
aS'Conclusion'
p2303
ag2303
ag2303
aS'Background'
p2304
ag2304
aVMethod
p2305
ag2305
ag2305
aVResult
p2306
ag2306
ag2306
aVConclusion
p2307
aS'Background'
p2308
ag2308
ag2308
ag2308
ag2308
ag2308
aVConclusion
p2309
aS'Background'
p2310
ag2310
ag2310
ag2310
ag2310
ag2310
ag2310
ag2310
ag2310
aS'Problem'
p2311
aVBackground
p2312
ag2312
ag2312
ag2312
ag2312
ag2312
ag2312
ag2312
ag2312
ag2312
ag2312
ag2312
ag2312
ag2312
ag2312
ag2312
aVProblem
p2313
aVConnection
p2314
ag2314
aS'Problem'
p2315
ag2315
ag2315
aS'Method'
p2316
ag2316
ag2316
ag2316
aS'Method'
p2317
ag2317
ag2317
ag2317
ag2317
ag2317
ag2317
ag2317
aS'Method'
p2318
ag2318
ag2318
ag2318
ag2318
ag2318
ag2318
ag2318
ag2318
ag2318
aS'Background'
p2319
ag2319
ag2319
ag2319
ag2319
aVMethod
p2320
ag2320
ag2320
ag2320
ag2320
ag2320
ag2320
ag2320
ag2320
ag2320
ag2320
ag2320
ag2320
ag2320
ag2320
ag2320
ag2320
ag2320
ag2320
ag2320
aS'Method'
p2321
ag2321
ag2321
ag2321
ag2321
ag2321
ag2321
aS'Result'
p2322
ag2322
ag2322
ag2322
aS'Result'
p2323
ag2323
ag2323
aS'Method'
p2324
ag2324
ag2324
aVBackground
p2325
ag2325
aVResult
p2326
ag2326
ag2326
ag2326
aS'Method'
p2327
aVResult
p2328
aS'Problem'
p2329
aVMethod
p2330
aVResult
p2331
ag2331
ag2331
ag2331
ag2331
aS'Method'
p2332
aVResult
p2333
aS'Method'
p2334
aVResult
p2335
ag2335
ag2335
ag2335
aS'Background'
p2336
ag2336
ag2336
ag2336
aVConclusion
p2337
ag2337
aS'Background'
p2338
ag2338
ag2338
ag2338
ag2338
ag2338
ag2338
ag2338
aS'Conclusion'
p2339
ag2339
ag2339
ag2339
aVDifference
p2340
ag2340
aVConclusion
p2341
ag2341
ag2341
ag2341
ag2341
ag2341
ag2341
aS'Connection'
p2342
ag2342
aVConclusion
p2343
ag2343
ag2343
ag2343
ag2343
aS'Conclusion'
p2344
aVConnection
p2345
aVBackground
p2346
ag2346
ag2346
aVConnection
p2347
ag2347
aVConclusion
p2348
ag2348
ag2348
aS'Conclusion'
p2349
ag2349
ag2349
ag2349
ag2349
ag2349
aS'Conclusion'
p2350
ag2350
ag2350
aS'Problem'
p2351
aVMethod
p2352
ag2352
aVResult
p2353
ag2353
aVConclusion
p2354
ag2354
ag2354
ag2354
aS'Background'
p2355
ag2355
ag2355
ag2355
ag2355
aS'Background'
p2356
ag2356
ag2356
ag2356
ag2356
aS'Background'
p2357
ag2357
ag2357
ag2357
ag2357
ag2357
aS'Problem'
p2358
ag2358
ag2358
ag2358
ag2358
ag2358
ag2358
ag2358
ag2358
ag2358
ag2358
aS'Method'
p2359
ag2359
ag2359
aS'Method'
p2360
ag2360
ag2360
ag2360
ag2360
aS'Method'
p2361
ag2361
ag2361
ag2361
ag2361
aS'Method'
p2362
ag2362
ag2362
ag2362
ag2362
ag2362
ag2362
ag2362
ag2362
ag2362
ag2362
ag2362
ag2362
aS'Method'
p2363
ag2363
ag2363
ag2363
ag2363
ag2363
ag2363
ag2363
ag2363
ag2363
ag2363
aS'Method'
p2364
ag2364
ag2364
ag2364
ag2364
ag2364
ag2364
ag2364
ag2364
ag2364
aS'Method'
p2365
aS'Method'
p2366
ag2366
ag2366
ag2366
ag2366
ag2366
ag2366
ag2366
aS'Result'
p2367
ag2367
ag2367
aS'Result'
p2368
ag2368
ag2368
ag2368
ag2368
ag2368
aVMethod
p2369
aS'Result'
p2370
ag2370
ag2370
aS'Method'
p2371
ag2371
aVResult
p2372
ag2372
aS'Background'
p2373
ag2373
aVConclusion
p2374
aVConnection
p2375
ag2375
aVConclusion
p2376
ag2376
ag2376
ag2376
ag2376
aVConnection
p2377
aVConclusion
p2378
ag2378
aS'Conclusion'
p2379
ag2379
ag2379
ag2379
ag2379
ag2379
ag2379
ag2379
ag2379
ag2379
ag2379
ag2379
aS'Conclusion'
p2380
ag2380
ag2380
ag2380
ag2380
aS'Background'
p2381
ag2381
aVConclusion
p2382
ag2382
ag2382
ag2382
ag2382
ag2382
aVBackground
p2383
ag2383
aVConnection
p2384
ag2384
aVConclusion
p2385
ag2385
ag2385
aS'Conclusion'
p2386
ag2386
ag2386
ag2386
ag2386
aS'Conclusion'
p2387
ag2387
ag2387
ag2387
aS'Problem'
p2388
ag2388
aVMethod
p2389
ag2389
ag2389
aVResult
p2390
ag2390
ag2390
ag2390
ag2390
aVConclusion
p2391
aS'Problem'
p2392
ag2392
ag2392
ag2392
ag2392
ag2392
ag2392
ag2392
ag2392
ag2392
ag2392
aS'Background'
p2393
ag2393
ag2393
ag2393
ag2393
ag2393
ag2393
ag2393
ag2393
ag2393
ag2393
aS'Problem'
p2394
aVMethod
p2395
aS'Method'
p2396
ag2396
ag2396
ag2396
ag2396
ag2396
ag2396
ag2396
ag2396
aS'Method'
p2397
ag2397
ag2397
ag2397
ag2397
ag2397
ag2397
aS'Method'
p2398
ag2398
ag2398
ag2398
ag2398
ag2398
aS'Method'
p2399
ag2399
ag2399
ag2399
ag2399
ag2399
ag2399
ag2399
ag2399
ag2399
ag2399
ag2399
aS'Method'
p2400
ag2400
ag2400
ag2400
ag2400
ag2400
ag2400
ag2400
ag2400
ag2400
aS'Method'
p2401
ag2401
ag2401
ag2401
ag2401
aS'Result'
p2402
ag2402
ag2402
ag2402
ag2402
ag2402
ag2402
ag2402
aS'Result'
p2403
ag2403
ag2403
ag2403
aS'Result'
p2404
ag2404
ag2404
ag2404
ag2404
ag2404
aS'Result'
p2405
ag2405
ag2405
aS'Result'
p2406
aVMethod
p2407
ag2407
aVResult
p2408
ag2408
ag2408
ag2408
ag2408
aS'Method'
p2409
aVResult
p2410
ag2410
ag2410
ag2410
aS'Background'
p2411
ag2411
ag2411
ag2411
aVConclusion
p2412
ag2412
ag2412
ag2412
ag2412
ag2412
aS'Background'
p2413
ag2413
ag2413
ag2413
ag2413
ag2413
ag2413
ag2413
aVConclusion
p2414
ag2414
aVConnection
p2415
ag2415
ag2415
ag2415
ag2415
ag2415
aVConclusion
p2416
ag2416
ag2416
ag2416
ag2416
ag2416
ag2416
ag2416
ag2416
ag2416
aS'Conclusion'
p2417
ag2417
ag2417
ag2417
ag2417
ag2417
ag2417
ag2417
aS'Background'
p2418
ag2418
aVConclusion
p2419
ag2419
ag2419
ag2419
ag2419
ag2419
aVBackground
p2420
aVConclusion
p2421
ag2421
ag2421
ag2421
ag2421
ag2421
ag2421
ag2421
ag2421
ag2421
aS'Conclusion'
p2422
ag2422
ag2422
ag2422
ag2422
ag2422
ag2422
ag2422
ag2422
ag2422
aS'Conclusion'
p2423
ag2423
ag2423
ag2423
ag2423
ag2423
aS'Conclusion'
p2424
ag2424
ag2424
ag2424
aS'Method'
p2425
ag2425
aVResult
p2426
ag2426
ag2426
ag2426
ag2426
ag2426
ag2426
aVMethod
p2427
aVConclusion
p2428
ag2428
ag2428
aS'Background'
p2429
ag2429
ag2429
ag2429
ag2429
ag2429
ag2429
ag2429
ag2429
ag2429
ag2429
ag2429
aS'Background'
p2430
ag2430
ag2430
ag2430
ag2430
ag2430
ag2430
ag2430
ag2430
ag2430
aS'Background'
p2431
ag2431
ag2431
ag2431
ag2431
ag2431
ag2431
ag2431
ag2431
ag2431
ag2431
ag2431
ag2431
ag2431
ag2431
ag2431
aVConclusion
p2432
aS'Method'
p2433
ag2433
ag2433
ag2433
aS'Method'
p2434
ag2434
ag2434
ag2434
ag2434
ag2434
ag2434
ag2434
ag2434
ag2434
aS'Method'
p2435
ag2435
ag2435
ag2435
ag2435
ag2435
aS'Method'
p2436
ag2436
ag2436
ag2436
aS'Method'
p2437
ag2437
ag2437
ag2437
ag2437
ag2437
ag2437
ag2437
ag2437
aS'Method'
p2438
aVResult
p2439
ag2439
aS'Method'
p2440
ag2440
ag2440
ag2440
ag2440
ag2440
aS'Method'
p2441
aVResult
p2442
ag2442
ag2442
aS'Background'
p2443
ag2443
ag2443
aVConclusion
p2444
ag2444
aS'Conclusion'
p2445
ag2445
ag2445
ag2445
ag2445
ag2445
ag2445
ag2445
ag2445
aVConnection
p2446
ag2446
aS'Conclusion'
p2447
ag2447
ag2447
ag2447
aVConnection
p2448
ag2448
ag2448
ag2448
ag2448
ag2448
ag2448
ag2448
ag2448
ag2448
ag2448
ag2448
ag2448
aS'Conclusion'
p2449
ag2449
ag2449
ag2449
ag2449
ag2449
ag2449
aS'Connection'
p2450
ag2450
ag2450
ag2450
ag2450
ag2450
aVConclusion
p2451
ag2451
ag2451
aVConnection
p2452
ag2452
ag2452
ag2452
ag2452
ag2452
ag2452
ag2452
aVConclusion
p2453
ag2453
aS'Conclusion'
p2454
ag2454
ag2454
ag2454
ag2454
ag2454
ag2454
ag2454
ag2454
ag2454
ag2454
aS'Background'
p2455
ag2455
aVMethod
p2456
ag2456
ag2456
ag2456
aVResult
p2457
ag2457
ag2457
ag2457
ag2457
aVConclusion
p2458
ag2458
aS'Background'
p2459
ag2459
ag2459
aS'Background'
p2460
ag2460
ag2460
aS'Background'
p2461
ag2461
ag2461
ag2461
ag2461
ag2461
ag2461
ag2461
ag2461
aVConclusion
p2462
aS'Background'
p2463
ag2463
ag2463
ag2463
ag2463
ag2463
ag2463
aVConclusion
p2464
aS'Conclusion'
p2465
ag2465
ag2465
ag2465
ag2465
ag2465
aVBackground
p2466
ag2466
ag2466
ag2466
aS'Problem'
p2467
ag2467
aS'Method'
p2468
ag2468
ag2468
ag2468
ag2468
ag2468
ag2468
ag2468
ag2468
ag2468
ag2468
aS'Method'
p2469
ag2469
ag2469
ag2469
ag2469
ag2469
aS'Method'
p2470
ag2470
ag2470
ag2470
ag2470
aS'Method'
p2471
ag2471
ag2471
ag2471
aS'Method'
p2472
ag2472
ag2472
aS'Method'
p2473
ag2473
ag2473
ag2473
ag2473
aS'Method'
p2474
ag2474
ag2474
ag2474
ag2474
ag2474
ag2474
ag2474
ag2474
aS'Method'
p2475
ag2475
ag2475
ag2475
ag2475
aS'Method'
p2476
ag2476
ag2476
ag2476
ag2476
ag2476
ag2476
aS'Method'
p2477
ag2477
ag2477
ag2477
aS'Result'
p2478
ag2478
ag2478
ag2478
ag2478
ag2478
aS'Result'
p2479
ag2479
ag2479
ag2479
ag2479
ag2479
aVBackground
p2480
aVResult
p2481
aS'Result'
p2482
aVMethod
p2483
aVBackground
p2484
aVResult
p2485
aS'Result'
p2486
ag2486
ag2486
ag2486
ag2486
ag2486
ag2486
ag2486
aS'Result'
p2487
ag2487
ag2487
ag2487
ag2487
ag2487
aVMethod
p2488
aVResult
p2489
aVConclusion
p2490
aS'Method'
p2491
aVResult
p2492
ag2492
ag2492
aS'Result'
p2493
ag2493
ag2493
ag2493
ag2493
ag2493
aS'Result'
p2494
ag2494
ag2494
ag2494
ag2494
ag2494
ag2494
aS'Result'
p2495
ag2495
ag2495
ag2495
ag2495
ag2495
ag2495
ag2495
ag2495
aS'Result'
p2496
ag2496
ag2496
aS'Background'
p2497
ag2497
ag2497
ag2497
aVConclusion
p2498
ag2498
ag2498
ag2498
ag2498
ag2498
ag2498
ag2498
aS'Conclusion'
p2499
ag2499
ag2499
ag2499
aVConnection
p2500
ag2500
ag2500
ag2500
ag2500
ag2500
ag2500
ag2500
aVConclusion
p2501
ag2501
ag2501
aS'Conclusion'
p2502
ag2502
ag2502
ag2502
ag2502
ag2502
ag2502
aVConnection
p2503
ag2503
ag2503
ag2503
aS'Background'
p2504
ag2504
aVConclusion
p2505
ag2505
ag2505
aS'Conclusion'
p2506
ag2506
aVConnection
p2507
ag2507
aVConclusion
p2508
aVConnection
p2509
ag2509
ag2509
aS'Conclusion'
p2510
ag2510
ag2510
ag2510
ag2510
ag2510
ag2510
ag2510
ag2510
ag2510
aS'Conclusion'
p2511
ag2511
ag2511
aS'Background'
p2512
aS'Problem'
p2513
aS'Method'
p2514
ag2514
ag2514
aS'Result'
p2515
ag2515
aS'Result'
p2516
aVConclusion
p2517
aS'Background'
p2518
ag2518
ag2518
ag2518
ag2518
ag2518
aS'Background'
p2519
ag2519
ag2519
ag2519
ag2519
aS'Background'
p2520
ag2520
ag2520
ag2520
ag2520
ag2520
ag2520
ag2520
ag2520
ag2520
ag2520
ag2520
aS'Background'
p2521
ag2521
ag2521
aVProblem
p2522
ag2522
aS'Method'
p2523
ag2523
ag2523
ag2523
ag2523
ag2523
ag2523
ag2523
ag2523
aS'Method'
p2524
ag2524
ag2524
ag2524
ag2524
ag2524
ag2524
ag2524
aS'Method'
p2525
ag2525
ag2525
ag2525
ag2525
aS'Method'
p2526
ag2526
ag2526
aVDifference
p2527
ag2527
ag2527
ag2527
aVConclusion
p2528
aS'Method'
p2529
aVDifference
p2530
ag2530
ag2530
aVMethod
p2531
ag2531
ag2531
aS'Method'
p2532
ag2532
ag2532
ag2532
ag2532
aS'Method'
p2533
ag2533
ag2533
ag2533
ag2533
aS'Method'
p2534
ag2534
ag2534
aS'Method'
p2535
ag2535
ag2535
ag2535
ag2535
ag2535
ag2535
aVBackground
p2536
ag2536
aVMethod
p2537
aVResult
p2538
ag2538
aVMethod
p2539
aS'Method'
p2540
ag2540
ag2540
ag2540
aS'Method'
p2541
ag2541
ag2541
ag2541
ag2541
ag2541
aS'Method'
p2542
ag2542
ag2542
ag2542
ag2542
aS'Method'
p2543
ag2543
ag2543
ag2543
aS'Method'
p2544
ag2544
ag2544
aS'Background'
p2545
ag2545
ag2545
ag2545
aVMethod
p2546
aVBackground
p2547
ag2547
aVMethod
p2548
ag2548
ag2548
aS'Method'
p2549
ag2549
aS'Result'
p2550
ag2550
ag2550
ag2550
ag2550
aS'Result'
p2551
aVMethod
p2552
aVResult
p2553
aS'Result'
p2554
ag2554
ag2554
ag2554
aS'Result'
p2555
ag2555
ag2555
ag2555
aS'Result'
p2556
ag2556
ag2556
ag2556
aS'Result'
p2557
ag2557
ag2557
ag2557
ag2557
ag2557
aS'Result'
p2558
ag2558
ag2558
ag2558
ag2558
ag2558
aS'Result'
p2559
ag2559
ag2559
ag2559
aS'Result'
p2560
ag2560
ag2560
ag2560
ag2560
ag2560
ag2560
aS'Conclusion'
p2561
ag2561
ag2561
aS'Result'
p2562
ag2562
ag2562
ag2562
ag2562
ag2562
aS'Result'
p2563
aVMethod
p2564
aVResult
p2565
ag2565
aVConclusion
p2566
aS'Result'
p2567
ag2567
ag2567
ag2567
ag2567
ag2567
aS'Result'
p2568
ag2568
ag2568
ag2568
ag2568
ag2568
ag2568
aVConclusion
p2569
aS'Method'
p2570
aVResult
p2571
ag2571
aS'Result'
p2572
aVProblem
p2573
aVResult
p2574
aVConclusion
p2575
aS'Conclusion'
p2576
ag2576
ag2576
ag2576
aS'Conclusion'
p2577
ag2577
ag2577
aS'Conclusion'
p2578
aVConnection
p2579
ag2579
ag2579
aS'Conclusion'
p2580
ag2580
ag2580
ag2580
aS'Conclusion'
p2581
ag2581
ag2581
ag2581
ag2581
aS'Conclusion'
p2582
ag2582
ag2582
ag2582
aS'Conclusion'
p2583
aVBackground
p2584
aVConclusion
p2585
ag2585
aS'Conclusion'
p2586
ag2586
ag2586
ag2586
aS'Conclusion'
p2587
ag2587
ag2587
ag2587
ag2587
ag2587
aS'Conclusion'
p2588
aVConnection
p2589
ag2589
ag2589
ag2589
ag2589
ag2589
aVConclusion
p2590
aS'Background'
p2591
aVConclusion
p2592
aS'Conclusion'
p2593
ag2593
ag2593
ag2593
aS'Problem'
p2594
ag2594
aVMethod
p2595
aVResult
p2596
ag2596
ag2596
ag2596
aVConclusion
p2597
aS'Background'
p2598
ag2598
aS'Background'
p2599
ag2599
aS'Background'
p2600
ag2600
ag2600
ag2600
ag2600
ag2600
ag2600
ag2600
aS'Background'
p2601
ag2601
ag2601
ag2601
ag2601
ag2601
ag2601
aS'Background'
p2602
ag2602
ag2602
ag2602
ag2602
ag2602
ag2602
ag2602
ag2602
aS'Background'
p2603
ag2603
ag2603
ag2603
ag2603
ag2603
aS'Problem'
p2604
ag2604
ag2604
aS'Method'
p2605
ag2605
ag2605
ag2605
ag2605
ag2605
ag2605
aS'Method'
p2606
ag2606
ag2606
ag2606
ag2606
aS'Method'
p2607
ag2607
ag2607
ag2607
ag2607
ag2607
aS'Method'
p2608
ag2608
ag2608
ag2608
ag2608
aS'Method'
p2609
ag2609
ag2609
ag2609
ag2609
aS'Method'
p2610
ag2610
ag2610
ag2610
ag2610
ag2610
ag2610
ag2610
aS'Method'
p2611
ag2611
ag2611
ag2611
aS'Method'
p2612
ag2612
ag2612
aS'Method'
p2613
aS'Result'
p2614
ag2614
aS'Result'
p2615
aVConclusion
p2616
ag2616
aVResult
p2617
aS'Result'
p2618
ag2618
ag2618
ag2618
ag2618
ag2618
aS'Result'
p2619
ag2619
ag2619
ag2619
ag2619
ag2619
ag2619
aS'Result'
p2620
ag2620
ag2620
ag2620
ag2620
aS'Result'
p2621
ag2621
ag2621
ag2621
ag2621
aS'Result'
p2622
ag2622
aS'Result'
p2623
ag2623
aVConclusion
p2624
aS'Result'
p2625
ag2625
aS'Result'
p2626
ag2626
ag2626
aS'Conclusion'
p2627
aS'Background'
p2628
ag2628
ag2628
aVConclusion
p2629
ag2629
ag2629
ag2629
aVBackground
p2630
ag2630
aS'Conclusion'
p2631
ag2631
ag2631
ag2631
ag2631
ag2631
ag2631
ag2631
ag2631
aS'Conclusion'
p2632
ag2632
aVDifference
p2633
ag2633
ag2633
ag2633
ag2633
aVConclusion
p2634
aS'Conclusion'
p2635
ag2635
ag2635
ag2635
ag2635
aS'Method'
p2636
ag2636
aVBackground
p2637
ag2637
ag2637
aVConclusion
p2638
aVBackground
p2639
aVConclusion
p2640
aVBackground
p2641
aVConclusion
p2642
ag2642
ag2642
aS'Conclusion'
p2643
ag2643
aS'Conclusion'
p2644
ag2644
aS'Conclusion'
p2645
ag2645
ag2645
aS'Background'
p2646
aS'Problem'
p2647
aS'Method'
p2648
ag2648
aS'Result'
p2649
ag2649
ag2649
aS'Conclusion'
p2650
ag2650
ag2650
aS'Background'
p2651
ag2651
ag2651
ag2651
ag2651
ag2651
ag2651
ag2651
ag2651
ag2651
aS'Background'
p2652
ag2652
ag2652
ag2652
ag2652
ag2652
aS'Background'
p2653
ag2653
ag2653
ag2653
ag2653
ag2653
ag2653
ag2653
ag2653
ag2653
ag2653
ag2653
ag2653
ag2653
aS'Problem'
p2654
ag2654
ag2654
ag2654
ag2654
ag2654
ag2654
ag2654
ag2654
ag2654
ag2654
aS'Problem'
p2655
aVMethod
p2656
aVConclusion
p2657
ag2657
aS'Method'
p2658
ag2658
ag2658
ag2658
ag2658
ag2658
ag2658
ag2658
aS'Method'
p2659
ag2659
aS'Method'
p2660
ag2660
ag2660
ag2660
ag2660
ag2660
ag2660
ag2660
ag2660
ag2660
ag2660
aS'Method'
p2661
ag2661
ag2661
aS'Method'
p2662
ag2662
ag2662
aS'Method'
p2663
ag2663
ag2663
ag2663
ag2663
ag2663
ag2663
ag2663
ag2663
aS'Method'
p2664
ag2664
ag2664
ag2664
aS'Method'
p2665
ag2665
ag2665
ag2665
ag2665
ag2665
ag2665
ag2665
ag2665
aS'Method'
p2666
ag2666
ag2666
ag2666
aVResult
p2667
aVMethod
p2668
ag2668
ag2668
ag2668
ag2668
aS'Result'
p2669
ag2669
ag2669
ag2669
ag2669
ag2669
aS'Result'
p2670
ag2670
ag2670
ag2670
ag2670
aS'Connection'
p2671
ag2671
ag2671
aVMethod
p2672
aVResult
p2673
ag2673
aS'Result'
p2674
aVMethod
p2675
aVResult
p2676
ag2676
ag2676
aVConclusion
p2677
aS'Result'
p2678
aVMethod
p2679
ag2679
aVResult
p2680
aVBackground
p2681
aVMethod
p2682
aVResult
p2683
aVBackground
p2684
aVResult
p2685
aS'Conclusion'
p2686
ag2686
aS'Conclusion'
p2687
ag2687
ag2687
ag2687
ag2687
ag2687
ag2687
ag2687
ag2687
ag2687
ag2687
aS'Conclusion'
p2688
aVConnection
p2689
ag2689
ag2689
ag2689
aVConclusion
p2690
aS'Conclusion'
p2691
ag2691
ag2691
ag2691
ag2691
aVConnection
p2692
ag2692
ag2692
aVConclusion
p2693
ag2693
ag2693
aS'Conclusion'
p2694
ag2694
ag2694
aVConnection
p2695
ag2695
aVBackground
p2696
ag2696
ag2696
ag2696
ag2696
ag2696
ag2696
ag2696
aS'Conclusion'
p2697
ag2697
ag2697
ag2697
ag2697
ag2697
ag2697
aVConnection
p2698
ag2698
aS'Conclusion'
p2699
ag2699
aVBackground
p2700
ag2700
aVConclusion
p2701
aS'Conclusion'
p2702
aVConnection
p2703
ag2703
aVConclusion
p2704
aVConnection
p2705
ag2705
ag2705
ag2705
ag2705
ag2705
ag2705
aVConclusion
p2706
aVConnection
p2707
ag2707
ag2707
ag2707
ag2707
ag2707
ag2707
ag2707
aVConclusion
p2708
aVConnection
p2709
ag2709
aS'Connection'
p2710
ag2710
ag2710
ag2710
ag2710
ag2710
ag2710
ag2710
ag2710
ag2710
ag2710
ag2710
ag2710
aVConclusion
p2711
aS'Conclusion'
p2712
aVConnection
p2713
ag2713
ag2713
ag2713
ag2713
ag2713
aVConclusion
p2714
aS'Conclusion'
p2715
ag2715
ag2715
aVConnection
p2716
aVConclusion
p2717
aVConnection
p2718
ag2718
ag2718
ag2718
ag2718
ag2718
ag2718
ag2718
aVConclusion
p2719
aS'Background'
p2720
ag2720
aS'Method'
p2721
aS'Method'
p2722
aS'Result'
p2723
ag2723
aS'Conclusion'
p2724
aS'Background'
p2725
ag2725
ag2725
ag2725
ag2725
ag2725
ag2725
aS'Background'
p2726
ag2726
ag2726
ag2726
ag2726
ag2726
ag2726
ag2726
ag2726
ag2726
ag2726
ag2726
ag2726
ag2726
ag2726
ag2726
aVProblem
p2727
aS'Background'
p2728
ag2728
ag2728
ag2728
ag2728
ag2728
ag2728
ag2728
aVProblem
p2729
aS'Background'
p2730
ag2730
ag2730
ag2730
ag2730
ag2730
ag2730
ag2730
ag2730
ag2730
ag2730
ag2730
ag2730
ag2730
ag2730
ag2730
ag2730
ag2730
aS'Background'
p2731
ag2731
ag2731
aVProblem
p2732
aS'Problem'
p2733
aVMethod
p2734
ag2734
aVBackground
p2735
ag2735
aVMethod
p2736
aS'Background'
p2737
ag2737
aVMethod
p2738
ag2738
ag2738
ag2738
aS'Method'
p2739
ag2739
ag2739
ag2739
ag2739
ag2739
aS'Method'
p2740
ag2740
ag2740
ag2740
ag2740
ag2740
ag2740
ag2740
ag2740
ag2740
ag2740
ag2740
ag2740
aS'Method'
p2741
ag2741
ag2741
ag2741
aS'Method'
p2742
ag2742
ag2742
ag2742
aVConclusion
p2743
aS'Problem'
p2744
aVConnection
p2745
ag2745
ag2745
ag2745
aVProblem
p2746
aS'Method'
p2747
ag2747
ag2747
ag2747
aVBackground
p2748
ag2748
ag2748
aVMethod
p2749
ag2749
ag2749
ag2749
ag2749
ag2749
ag2749
aVConclusion
p2750
aS'Problem'
p2751
aVMethod
p2752
ag2752
aVConnection
p2753
ag2753
aVMethod
p2754
aVProblem
p2755
aS'Result'
p2756
aS'Result'
p2757
ag2757
aS'Result'
p2758
ag2758
ag2758
ag2758
aS'Result'
p2759
ag2759
ag2759
aS'Result'
p2760
ag2760
aS'Result'
p2761
ag2761
ag2761
ag2761
ag2761
ag2761
ag2761
ag2761
ag2761
aS'Conclusion'
p2762
ag2762
ag2762
ag2762
aS'Background'
p2763
ag2763
ag2763
ag2763
ag2763
ag2763
ag2763
ag2763
ag2763
ag2763
ag2763
ag2763
ag2763
ag2763
ag2763
ag2763
ag2763
ag2763
ag2763
ag2763
ag2763
ag2763
aVConclusion
p2764
aS'Background'
p2765
ag2765
ag2765
ag2765
ag2765
ag2765
ag2765
ag2765
ag2765
ag2765
ag2765
aVDifference
p2766
ag2766
aVConclusion
p2767
ag2767
ag2767
aS'Conclusion'
p2768
ag2768
ag2768
ag2768
ag2768
ag2768
aS'Conclusion'
p2769
aVBackground
p2770
ag2770
ag2770
aVConclusion
p2771
ag2771
ag2771
ag2771
aS'Conclusion'
p2772
ag2772
ag2772
ag2772
ag2772
ag2772
aVDifference
p2773
ag2773
aVConnection
p2774
ag2774
ag2774
ag2774
aVConclusion
p2775
ag2775
aS'Conclusion'
p2776
ag2776
ag2776
ag2776
aS'Conclusion'
p2777
ag2777
aS'Conclusion'
p2778
ag2778
aVBackground
p2779
ag2779
ag2779
ag2779
aS'Difference'
p2780
ag2780
ag2780
ag2780
aVConclusion
p2781
ag2781
ag2781
aS'Background'
p2782
aS'Problem'
p2783
aS'Method'
p2784
ag2784
aS'Result'
p2785
ag2785
ag2785
ag2785
ag2785
aS'Conclusion'
p2786
aS'Background'
p2787
ag2787
ag2787
ag2787
ag2787
aS'Background'
p2788
ag2788
ag2788
ag2788
ag2788
ag2788
ag2788
ag2788
ag2788
ag2788
aS'Background'
p2789
ag2789
ag2789
ag2789
ag2789
ag2789
ag2789
ag2789
ag2789
ag2789
ag2789
ag2789
ag2789
ag2789
aS'Problem'
p2790
aVMethod
p2791
ag2791
ag2791
ag2791
ag2791
ag2791
ag2791
ag2791
ag2791
ag2791
aS'Method'
p2792
ag2792
ag2792
ag2792
ag2792
aVBackground
p2793
ag2793
ag2793
ag2793
ag2793
aS'Method'
p2794
ag2794
aVBackground
p2795
ag2795
aVMethod
p2796
aS'Method'
p2797
ag2797
ag2797
aS'Method'
p2798
ag2798
ag2798
ag2798
ag2798
ag2798
aS'Method'
p2799
ag2799
ag2799
aS'Method'
p2800
ag2800
ag2800
ag2800
aS'Method'
p2801
ag2801
ag2801
ag2801
ag2801
ag2801
ag2801
ag2801
ag2801
ag2801
aS'Method'
p2802
ag2802
ag2802
ag2802
ag2802
ag2802
ag2802
ag2802
ag2802
ag2802
ag2802
ag2802
ag2802
aS'Method'
p2803
ag2803
ag2803
aS'Method'
p2804
ag2804
ag2804
ag2804
aS'Method'
p2805
ag2805
ag2805
aS'Method'
p2806
ag2806
ag2806
ag2806
ag2806
ag2806
ag2806
ag2806
ag2806
ag2806
ag2806
ag2806
ag2806
aS'Method'
p2807
ag2807
ag2807
ag2807
ag2807
aS'Result'
p2808
ag2808
ag2808
ag2808
ag2808
ag2808
aS'Result'
p2809
ag2809
ag2809
ag2809
ag2809
aS'Result'
p2810
ag2810
aS'Problem'
p2811
aVMethod
p2812
aVResult
p2813
ag2813
aS'Result'
p2814
ag2814
ag2814
aVConclusion
p2815
aS'Conclusion'
p2816
ag2816
aS'Conclusion'
p2817
aVConnection
p2818
ag2818
ag2818
ag2818
aVConclusion
p2819
aS'Background'
p2820
ag2820
ag2820
ag2820
ag2820
ag2820
ag2820
ag2820
ag2820
aS'Conclusion'
p2821
ag2821
aVConnection
p2822
ag2822
aS'Conclusion'
p2823
aVBackground
p2824
ag2824
ag2824
ag2824
ag2824
aS'Conclusion'
p2825
ag2825
aVConnection
p2826
ag2826
aS'Connection'
p2827
ag2827
ag2827
ag2827
ag2827
ag2827
ag2827
ag2827
aS'Conclusion'
p2828
ag2828
ag2828
ag2828
ag2828
ag2828
ag2828
ag2828
ag2828
ag2828
aS'Conclusion'
p2829
aVConnection
p2830
ag2830
ag2830
ag2830
ag2830
ag2830
aVConclusion
p2831
aS'Background'
p2832
ag2832
aVConclusion
p2833
ag2833
ag2833
aVConnection
p2834
ag2834
aVConclusion
p2835
ag2835
ag2835
ag2835
ag2835
aS'Conclusion'
p2836
ag2836
aVConnection
p2837
ag2837
ag2837
ag2837
ag2837
ag2837
ag2837
ag2837
ag2837
ag2837
ag2837
aS'Conclusion'
p2838
ag2838
aVConnection
p2839
ag2839
ag2839
ag2839
aS'Conclusion'
p2840
aVConnection
p2841
ag2841
ag2841
aVConclusion
p2842
aS'Conclusion'
p2843
aVConnection
p2844
ag2844
ag2844
ag2844
ag2844
aVConclusion
p2845
ag2845
aS'Background'
p2846
ag2846
aS'Problem'
p2847
aS'Method'
p2848
aS'Result'
p2849
ag2849
aS'Conclusion'
p2850
aS'Background'
p2851
ag2851
ag2851
ag2851
ag2851
ag2851
ag2851
ag2851
aVProblem
p2852
aS'Method'
p2853
aVProblem
p2854
aVResult
p2855
aS'Problem'
p2856
ag2856
ag2856
ag2856
ag2856
ag2856
ag2856
ag2856
ag2856
ag2856
aS'Problem'
p2857
ag2857
aS'Method'
p2858
ag2858
ag2858
ag2858
ag2858
ag2858
aS'Background'
p2859
aVMethod
p2860
ag2860
aVBackground
p2861
aVMethod
p2862
ag2862
ag2862
aS'Method'
p2863
ag2863
ag2863
aVDifference
p2864
ag2864
aS'Method'
p2865
ag2865
ag2865
ag2865
ag2865
ag2865
ag2865
ag2865
ag2865
ag2865
ag2865
ag2865
ag2865
aS'Method'
p2866
ag2866
ag2866
ag2866
aS'Method'
p2867
ag2867
ag2867
ag2867
ag2867
aS'Method'
p2868
aS'Method'
p2869
ag2869
ag2869
ag2869
ag2869
aS'Method'
p2870
aS'Method'
p2871
ag2871
ag2871
aS'Method'
p2872
ag2872
ag2872
ag2872
ag2872
aS'Result'
p2873
ag2873
ag2873
aS'Result'
p2874
ag2874
ag2874
ag2874
ag2874
ag2874
ag2874
aS'Result'
p2875
ag2875
ag2875
ag2875
ag2875
aS'Result'
p2876
ag2876
ag2876
ag2876
ag2876
aS'Method'
p2877
aVResult
p2878
ag2878
ag2878
aS'Conclusion'
p2879
aS'Conclusion'
p2880
ag2880
ag2880
ag2880
aS'Conclusion'
p2881
ag2881
aVBackground
p2882
ag2882
ag2882
ag2882
ag2882
ag2882
ag2882
ag2882
ag2882
ag2882
ag2882
ag2882
ag2882
ag2882
ag2882
ag2882
ag2882
ag2882
ag2882
ag2882
ag2882
ag2882
ag2882
ag2882
aVConclusion
p2883
ag2883
aS'Conclusion'
p2884
ag2884
ag2884
ag2884
ag2884
aS'Connection'
p2885
ag2885
ag2885
ag2885
ag2885
aVConclusion
p2886
aVConnection
p2887
ag2887
aS'Conclusion'
p2888
ag2888
ag2888
ag2888
ag2888
ag2888
ag2888
aS'Conclusion'
p2889
aVConnection
p2890
ag2890
ag2890
aVBackground
p2891
aVConnection
p2892
ag2892
aVConclusion
p2893
ag2893
ag2893
ag2893
ag2893
aS'Conclusion'
p2894
ag2894
aS'Background'
p2895
ag2895
aS'Problem'
p2896
aS'Method'
p2897
ag2897
aS'Conclusion'
p2898
aS'Conclusion'
p2899
ag2899
aS'Background'
p2900
ag2900
ag2900
ag2900
ag2900
ag2900
ag2900
ag2900
ag2900
ag2900
ag2900
aS'Background'
p2901
ag2901
ag2901
ag2901
ag2901
ag2901
ag2901
ag2901
ag2901
ag2901
ag2901
ag2901
aS'Background'
p2902
ag2902
ag2902
ag2902
ag2902
ag2902
aS'Background'
p2903
ag2903
ag2903
ag2903
ag2903
ag2903
ag2903
ag2903
aS'Background'
p2904
aVProblem
p2905
ag2905
aS'Method'
p2906
ag2906
ag2906
ag2906
ag2906
ag2906
aS'Method'
p2907
ag2907
ag2907
ag2907
ag2907
ag2907
aS'Method'
p2908
ag2908
ag2908
ag2908
ag2908
ag2908
ag2908
ag2908
aS'Method'
p2909
ag2909
ag2909
ag2909
ag2909
ag2909
ag2909
ag2909
ag2909
ag2909
ag2909
ag2909
aS'Method'
p2910
ag2910
ag2910
ag2910
ag2910
ag2910
ag2910
ag2910
ag2910
ag2910
aS'Method'
p2911
ag2911
ag2911
ag2911
ag2911
ag2911
ag2911
aS'Method'
p2912
ag2912
ag2912
ag2912
ag2912
ag2912
ag2912
ag2912
ag2912
ag2912
ag2912
ag2912
ag2912
aS'Method'
p2913
ag2913
ag2913
ag2913
ag2913
ag2913
aS'Result'
p2914
ag2914
ag2914
ag2914
ag2914
ag2914
ag2914
ag2914
ag2914
ag2914
aS'Result'
p2915
ag2915
ag2915
ag2915
ag2915
aS'Result'
p2916
ag2916
ag2916
ag2916
ag2916
ag2916
ag2916
ag2916
ag2916
aS'Background'
p2917
ag2917
ag2917
ag2917
ag2917
ag2917
ag2917
ag2917
aS'Background'
p2918
ag2918
ag2918
ag2918
ag2918
ag2918
aVProblem
p2919
aVBackground
p2920
aS'Conclusion'
p2921
aVBackground
p2922
ag2922
ag2922
aVConclusion
p2923
ag2923
ag2923
ag2923
ag2923
ag2923
ag2923
aS'Conclusion'
p2924
ag2924
ag2924
ag2924
ag2924
ag2924
ag2924
aS'Conclusion'
p2925
ag2925
ag2925
ag2925
ag2925
aVConnection
p2926
ag2926
aVConclusion
p2927
ag2927
ag2927
ag2927
ag2927
ag2927
ag2927
ag2927
aS'Conclusion'
p2928
ag2928
ag2928
ag2928
ag2928
ag2928
ag2928
ag2928
ag2928
aS'Conclusion'
p2929
ag2929
ag2929
ag2929
ag2929
ag2929
aS'Conclusion'
p2930
ag2930
ag2930
ag2930
ag2930
aVConnection
p2931
ag2931
aVConclusion
p2932
ag2932
ag2932
aS'Background'
p2933
aVProblem
p2934
aS'Problem'
p2935
ag2935
aS'Method'
p2936
ag2936
aS'Result'
p2937
ag2937
ag2937
ag2937
aS'Conclusion'
p2938
aS'Background'
p2939
ag2939
ag2939
ag2939
ag2939
ag2939
ag2939
ag2939
ag2939
ag2939
ag2939
ag2939
ag2939
ag2939
ag2939
ag2939
ag2939
aVProblem
p2940
aVBackground
p2941
ag2941
aS'Background'
p2942
ag2942
ag2942
ag2942
aVProblem
p2943
ag2943
ag2943
aVConclusion
p2944
ag2944
aS'Method'
p2945
aVResult
p2946
aVMethod
p2947
aVBackground
p2948
ag2948
aVMethod
p2949
aS'Method'
p2950
ag2950
ag2950
ag2950
ag2950
ag2950
ag2950
ag2950
ag2950
ag2950
ag2950
ag2950
aS'Method'
p2951
ag2951
ag2951
aS'Method'
p2952
ag2952
ag2952
ag2952
ag2952
aS'Method'
p2953
ag2953
aVBackground
p2954
ag2954
aVResult
p2955
ag2955
aVMethod
p2956
aS'Result'
p2957
aVConnection
p2958
ag2958
aVResult
p2959
ag2959
aVConclusion
p2960
aS'Background'
p2961
ag2961
ag2961
ag2961
aVResult
p2962
ag2962
ag2962
aVConclusion
p2963
ag2963
aS'Method'
p2964
aVResult
p2965
ag2965
aVConclusion
p2966
ag2966
ag2966
ag2966
ag2966
ag2966
ag2966
ag2966
aS'Conclusion'
p2967
aVResult
p2968
ag2968
ag2968
ag2968
ag2968
ag2968
ag2968
ag2968
ag2968
aVConclusion
p2969
ag2969
ag2969
ag2969
ag2969
aS'Conclusion'
p2970
ag2970
ag2970
ag2970
aVFuture
p2971
aVConclusion
p2972
aS'Background'
p2973
ag2973
aS'Result'
p2974
ag2974
ag2974
aVConclusion
p2975
aVResult
p2976
aS'Conclusion'
p2977
ag2977
aS'Background'
p2978
ag2978
ag2978
ag2978
ag2978
aS'Background'
p2979
ag2979
ag2979
ag2979
ag2979
ag2979
aS'Background'
p2980
ag2980
ag2980
ag2980
ag2980
aS'Method'
p2981
aVConclusion
p2982
ag2982
aS'Method'
p2983
ag2983
ag2983
aS'Result'
p2984
ag2984
ag2984
ag2984
aS'Background'
p2985
aVResult
p2986
aVBackground
p2987
aVResult
p2988
aVMethod
p2989
ag2989
aVResult
p2990
ag2990
aVConclusion
p2991
aS'Problem'
p2992
aVResult
p2993
ag2993
ag2993
aS'Method'
p2994
aVResult
p2995
ag2995
aS'Method'
p2996
aVProblem
p2997
aVMethod
p2998
aVResult
p2999
ag2999
ag2999
aVConclusion
p3000
aVConnection
p3001
aS'Problem'
p3002
aVMethod
p3003
aVResult
p3004
ag3004
ag3004
ag3004
aVConclusion
p3005
ag3005
aS'Background'
p3006
aVConclusion
p3007
ag3007
aVConnection
p3008
aVConclusion
p3009
aVConnection
p3010
aS'Conclusion'
p3011
ag3011
ag3011
aVConnection
p3012
aVConclusion
p3013
aS'Conclusion'
p3014
ag3014
aVBackground
p3015
ag3015
aVConnection
p3016
ag3016
aS'Conclusion'
p3017
aVConnection
p3018
ag3018
aVConclusion
p3019
aS'Method'
p3020
ag3020
ag3020
aS'Method'
p3021
ag3021
ag3021
ag3021
aS'Method'
p3022
ag3022
ag3022
ag3022
ag3022
aVResult
p3023
aS'Method'
p3024
ag3024
aVBackground
p3025
aVMethod
p3026
aVBackground
p3027
aVResult
p3028
aS'Method'
p3029
ag3029
aS'Method'
p3030
ag3030
ag3030
ag3030
aS'Method'
p3031
ag3031
ag3031
ag3031
ag3031
ag3031
aS'Method'
p3032
ag3032
ag3032
ag3032
ag3032
a.